(lp0
(lp1
F8.8430527e-05
aF0.0711378917
aF-0.000168059886
aF-0.971690439
aF1.6830881e-05
aF0.371467111
aF5.62890805e-05
aa(lp2
F8.91636576231491e-05
aF0.07114374079546631
aF-0.00016882993920675898
aF-0.9716886529835815
aF1.6895725142441245e-05
aF0.37146589917864514
aF5.632762668456705e-05
aa(lp3
F4.431433394448099e-05
aF0.07114916965002786
aF-0.00020471301424648374
aF-0.9716874557091584
aF1.2793699641822471e-05
aF0.37146490859130415
aF5.685386583164087e-05
aa(lp4
F-4.607200717326188e-05
aF0.07115384274099365
aF-0.00028153286496302235
aF-0.9716881051904862
aF4.525270930338719e-06
aF0.3714646650143881
aF5.7417535938295116e-05
aa(lp5
F-0.00018109889210576972
aF0.07115737613966593
aF-0.0003988831352139697
aF-0.9716917705919714
aF-7.827624556904544e-06
aF0.37146563600377347
aF5.797377125275623e-05
aa(lp6
F-0.0003598067159413358
aF0.07115941352615959
aF-0.0005559226570450145
aF-0.9716995735902421
aF-2.417718606770193e-05
aF0.37146826625837664
aF5.8519389670315085e-05
aa(lp7
F-0.0005812453049838138
aF0.07115962864397621
aF-0.0007517910262711873
aF-0.9717125906311571
aF-4.443652173849849e-05
aF0.37147298030933434
aF5.905431447709116e-05
aa(lp8
F-0.0008444788715400095
aF0.07115772385170492
aF-0.0009856392524114962
aF-0.9717318547671825
aF-6.852012265272409e-05
aF0.37148018352543793
aF5.957869689401927e-05
aa(lp9
F-0.0011485859539106201
aF0.07115342849837085
aF-0.0012566317095677462
aF-0.9717583574336631
aF-9.634386782343602e-05
aF0.37149026296904425
aF6.009270160314028e-05
aa(lp10
F-0.0014926590042401854
aF0.07114649736288203
aF-0.0015639459559216198
aF-0.971793050143227
aF-0.00012782499456558705
aF0.3715035882033211
aF6.0596490855757306e-05
aa(lp11
F-0.0018758039707435824
aF0.07113670917089705
aF-0.0019067724031018771
aF-0.9718368460997232
aF-0.00016288206670112362
aF0.37152051205996794
aF6.10902233848377e-05
aa(lp12
F-0.0022971398990543463
aF0.07112386518653495
aF-0.002284313983168446
aF-0.9718906217354774
aF-0.0002014349430567628
aF0.371541371369866
aF6.157405441693193e-05
aa(lp13
F-0.0027557985535181318
aF0.07110778787536945
aF-0.002695785824211212
aF-0.9719552181756401
aF-0.0002434047464737861
aF0.3715664876585205
aF6.204813576190074e-05
aa(lp14
F-0.003250924057537981
aF0.07108831963524379
aF-0.0031404149353491677
aF-0.9720314426332216
aF-0.0002887138333778557
aF0.3715961678080281
aF6.251261590456575e-05
aa(lp15
F-0.0037816725520116693
aF0.07106532159160872
aF-0.0036174399011412086
aF-0.9721200697382171
aF-0.00033728576394013646
aF0.3716307046872097
aF6.29676400929093e-05
aa(lp16
F-0.004347211870952855
aF0.0710386724542472
aF-0.004126110585350146
aF-0.9722218428040583
aF-0.0003890452728560864
aF0.37167037775146666
aF6.341335042268735e-05
aa(lp17
F-0.004946721233443426
aF0.0710082674324043
aF-0.004665687843985359
aF-0.9723374750344579
aF-0.0004439182407645167
aF0.3717154536138385
aF6.384988591868828e-05
aa(lp18
F-0.00557939095111603
aF0.07097401720548639
aF-0.005235443247538018
aF-0.9724676506735591
aF-0.0005018316663260765
aF0.3717661865886664
aF6.427738261287717e-05
aa(lp19
F-0.006244422150413139
aF0.07093584694663263
aF-0.005834658812312382
aF-0.9726130261021605
aF-0.0005627136389771228
aF0.37182281920919674
aF6.46959736196486e-05
aa(lp20
F-0.006941026508912797
aF0.07089369539659306
aF-0.006462626740747251
aF-0.9727742308826437
aF-0.0006264933123719995
aF0.3718855827203929
aF6.510578920839322e-05
aa(lp21
F-0.007668426005051008
aF0.07084751398547286
aF-0.007118649170612619
aF-0.9729518687551052
aF-0.0006931008785239867
aF0.3719546975481597
aF6.550695687356243e-05
aa(lp22
F-0.00842585268060786
aF0.0707972660000206
aF-0.007802037932958527
aF-0.97314651858707
aF-0.0007624675426526679
aF0.3720303737461272
aF6.589960140240621e-05
aa(lp23
F-0.009212548415358287
aF0.070742925794251
aF-0.008512114318685494
aF-0.9733587352790488
aF-0.0008345254987431024
aF0.37211281142108366
aF6.628384494053686e-05
aa(lp24
F-0.010027764713319714
aF0.07068447804129967
aF-0.009248208853598908
aF-0.9735890506280909
aF-0.0009092079058200215
aF0.37220220113809416
aF6.665980705546406e-05
aa(lp25
F-0.010870762500057713
aF0.07062191702450922
aF-0.010009661081803428
aF-0.9738379741513808
aF-0.0009864488649382682
aF0.3722987243062913
aF6.702760479823109e-05
aa(lp26
F-0.011740811930537479
aF0.07055524596584231
aF-0.010795819357287552
aF-0.9741059938718301
aF-0.0010661833968888437
aF0.3724025535462767
aF6.738735276327089e-05
aa(lp27
F-0.012637192207033555
aF0.07048447638980904
aF-0.011606040643543121
aF-0.9743935770675194
aF-0.0011483474206182211
aF0.37251385304002727
aF6.773916314659198e-05
aa(lp28
F-0.013559191406633017
aF0.07040962752118364
aF-0.012439690321059639
aF-0.9747011709867618
aF-0.0012328777323570121
aF0.37263277886415597
aF6.808314580239181e-05
aa(lp29
F-0.014506106317888555
aF0.0703307257148683
aF-0.013296142002528927
aF-0.9750292035304701
aF-0.001319711985452636
aF0.3727594793073375
aF6.841940829818996e-05
aa(lp30
F-0.015477242286197268
aF0.07024780391634053
aF-0.014174777355591438
aF-0.9753780839034347
aF-0.001408788670899295
aF0.3728940951726696
aF6.874805596856117e-05
aa(lp31
F-0.0164719130674994
aF0.07016090115119585
aF-0.015074985932952143
aF-0.9757482032360408
aF-0.0015000470985573628
aF0.37303676006570474
aF6.906919196754552e-05
aa(lp32
F-0.017489440689908042
aF0.07007006204236876
aF-0.015996165009690578
aF-0.9761399351778827
aF-0.0015934273790531746
aF0.37318760066885115
aF6.938291731980475e-05
aa(lp33
F-0.01852915532289658
aF0.06997533635368315
aF-0.016937719427586786
aF-0.976553636464664
aF-0.0016888704063491783
aF0.37334673700280957
aF6.968933097058447e-05
aa(lp34
F-0.019590395153685373
aF0.06987677855844708
aF-0.017899061446282425
aF-0.9769896474597085
aF-0.0017863178409735002
aF0.3735142826756808
aF6.99885298345423e-05
aa(lp35
F-0.02067250627048291
aF0.0697744474318691
aF-0.018879610601094138
aF-0.9774482926713429
aF-0.0018857120938971233
aF0.3736903451203479
aF7.028060884349388e-05
aa(lp36
F-0.021774842552249523
aF0.06966840566613176
aF-0.01987879356729442
aF-0.9779298812473535
aF-0.0019869963110461276
aF0.37387502582070936
aF7.056566099312219e-05
aa(lp37
F-0.022896765564663742
aF0.06955871950701263
aF-0.020896044030673706
aF-0.978434707447665
aF-0.002090114358435746
aF0.37406842052731265
aF7.084377738869717e-05
aa(lp38
F-0.024037644461982945
aF0.06944545841099707
aF-0.021930802564196234
aF-0.9789630510963331
aF-0.002195010807912391
aF0.37427061946290996
aF7.11150472898437e-05
aa(lp39
F-0.025196855894500287
aF0.06932869472187714
aF-0.022982516510561123
aF-0.9795151780138913
aF-0.0023016309234892415
aF0.3744817075184352
aF7.137955815439454e-05
aa(lp40
F-0.026373783921310297
aF0.06920850336587846
aF-0.024050639870479604
aF-0.9800913404310471
aF-0.002409920648260507
aF0.3747017644398766
aF7.163739568136314e-05
aa(lp41
F-0.027567819928105017
aF0.06908496156440314
aF-0.025134633196478882
aF-0.9806917773846704
aF-0.0025198265918790633
aF0.3749308650064975
aF7.188864385306625e-05
aa(lp42
F-0.028778362549731595
aF0.06895814856351996
aF-0.02623396349204298
aF-0.9813167150969779
aF-0.0026312960185817733
aF0.3751690792008362
aF7.213338497642722e-05
aa(lp43
F-0.030004817597250873
aF0.06882814537937448
aF-0.027348104115900895
aF-0.98196636733877
aF-0.002744276835746497
aF0.3754164723708951
aF7.237169972348208e-05
aa(lp44
F-0.031246597989244913
aF0.06869503455873097
aF-0.02847653469127299
aF-0.9826409357775389
aF-0.0028587175829645293
aF0.3756731053849111
aF7.260366717111798e-05
aa(lp45
F-0.03250312368712918
aF0.06855889995389558
aF-0.02961874101988685
aF-0.9833406103112275
aF-0.002974567421611977
aF0.3759390347790795
aF7.282936484006269e-05
aa(lp46
F-0.03377382163423273
aF0.06841982651130636
aF-0.03077421500057481
aF-0.9840655693883792
aF-0.0030917761249034175
aF0.376214312898586
aF7.304886873314794e-05
aa(lp47
F-0.035058125698417195
aF0.06827790007310838
aF-0.03194245455226638
aF-0.9848159803153855
aF-0.0032102940684110466
aF0.3764989880322864
aF7.326225337286685e-05
aa(lp48
F-0.036355476618012174
aF0.06813320719106632
aF-0.033122963541189876
aF-0.9855919995515044
aF-0.0033300722210324284
aF0.3767931045413543
aF7.346959183824219e-05
aa(lp49
F-0.03766532195085182
aF0.0679858349521963
aF-0.034315251712099225
aF-0.9863937729922859
aF-0.003451062136389908
aF0.37709670298220493
aF7.367095580102294e-05
aa(lp50
F-0.03898711602620374
aF0.06783587081552862
aF-0.03551883462334333
aF-0.9872214362420162
aF-0.003573215944644718
aF0.3774098202239866
aF7.38664155612266e-05
aa(lp51
F-0.04032031989938803
aF0.067683402459441
aF-0.036733233585597394
aF-0.9880751148757564
aF-0.0036964863447088445
aF0.3777324895609179
aF7.40560400820401e-05
aa(lp52
F-0.04166440130889046
aF0.06752851763902835
aF-0.037957975604077494
aF-0.9889549246915271
aF-0.003820826596837736
aF0.3780647408197355
aF7.423989702409512e-05
aa(lp53
F-0.043018834635780205
aF0.0673713040530009
aF-0.03919259332406196
aF-0.9898609719531591
aF-0.003946190515587052
aF0.37840660046250474
aF7.441805277913122e-05
aa(lp54
F-0.0443831008652482
aF0.0672118492196253
aF-0.040436624979545435
aF-0.9907933536243091
aF-0.004072532463116714
aF0.3787580916850322
aF7.459057250305785e-05
aa(lp55
F-0.04575668755008865
aF0.06705024036124857
aF-0.041689614344854076
aF-0.991752157594108
aF-0.004199807342825693
aF0.3791192345111092
aF7.475752014842923e-05
aa(lp56
F-0.04713908877595169
aF0.06688656429696432
aF-0.04295111068905306
aF-0.9927374628948922
aF-0.004327970593301099
aF0.3794900458828023
aF7.49189584963419e-05
aa(lp57
F-0.048529805128201126
aF0.06672090734300264
aF-0.04422066873298026
aF-0.9937493399124395
aF-0.004456978182565333
aF0.3798705397469984
aF7.507494918776687e-05
aa(lp58
F-0.04992834366021705
aF0.06655335522044514
aF-0.04549784860874322
aF-0.9947878505891125
aF-0.0045867866026052815
aF0.3802607271383998
aF7.52255527543257e-05
aa(lp59
F-0.05133421786298839
aF0.06638399296988479
aF-0.046782215821519486
aF-0.9958530486202896
aF-0.004717352864167731
aF0.3806606162591556
aF7.537082864852121e-05
aa(lp60
F-0.052746948180485885
aF0.06621290350451514
aF-0.048073181274693684
aF-0.9969449800053851
aF-0.004848634491805463
aF0.3810702118603729
aF7.55279428716594e-05
aa(lp61
F-0.05416606039120011
aF0.06604017113737254
aF-0.04937047690595785
aF-0.9980636825771588
aF-0.0049805895219882865
aF0.3814895176096198
aF7.568026535488002e-05
aa(lp62
F-0.055591088741036625
aF0.065865878515088
aF-0.050673695109070764
aF-0.9992091863929854
aF-0.005113176646719113
aF0.38191853369314765
aF7.582684105232303e-05
aa(lp63
F-0.057021572768851086
aF0.06569010588129308
aF-0.05198226213742509
aF-1.0003815143373713
aF-0.0052463549087748305
aF0.38235725700691875
aF7.59848148802007e-05
aa(lp64
F-0.05845705714863623
aF0.06551293470947821
aF-0.05329592602253587
aF-1.0015806816498725
aF-0.005380083837797236
aF0.3828056835733112
aF7.613757601764559e-05
aa(lp65
F-0.05989709493728501
aF0.06533444464774044
aF-0.054614295922458284
aF-1.002806696290849
aF-0.0055143236072632724
aF0.3832638061292062
aF7.628404494557358e-05
aa(lp66
F-0.06134124439831872
aF0.0651547127828102
aF-0.05593681410981809
aF-1.004059559537253
aF-0.005649034728954024
aF0.38373161430727076
aF7.64412343839903e-05
aa(lp67
F-0.06278906886647025
aF0.06497381727908334
aF-0.05726324275797193
aF-1.0053392655013245
aF-0.00578417818928852
aF0.3842090970404963
aF7.659273367303576e-05
aa(lp68
F-0.0642401399642633
aF0.06479183437189397
aF-0.058593207566962444
aF-1.0066458014739443
aF-0.005919715607593655
aF0.38469624016225423
aF7.673733786788969e-05
aa(lp69
F-0.06569403444675882
aF0.06460883764323908
aF-0.059926168717816725
aF-1.00797914850997
aF-0.006055608932008001
aF0.3851930265770999
aF7.689170973358441e-05
aa(lp70
F-0.06715033409195005
aF0.06442490159422348
aF-0.061261900315344515
aF-1.0093392809428416
aF-0.006191820574260805
aF0.385699438624316
aF7.703984433983757e-05
aa(lp71
F-0.06860862884272066
aF0.0642400987468175
aF-0.06260004434715098
aF-1.01072616671123
aF-0.006328313567202447
aF0.3862154557240526
aF7.718041649303361e-05
aa(lp72
F-0.0700685137109422
aF0.0640544989495668
aF-0.06394008132030708
aF-1.0121397679290163
aF-0.0064650512659247894
aF0.38674105453745466
aF7.732947964551717e-05
aa(lp73
F-0.07152958869968287
aF0.06386817277889707
aF-0.06528179468856529
aF-1.0135800403986015
aF-0.006601997478959336
aF0.3872762112542027
aF7.747167029586369e-05
aa(lp74
F-0.07299146230252118
aF0.06368118758209472
aF-0.06662468792137238
aF-1.0150469343008834
aF-0.0067391166225026534
aF0.3878208986557647
aF7.762182535926509e-05
aa(lp75
F-0.07445374666634685
aF0.0634936112384402
aF-0.06796855616466015
aF-1.0165403937213318
aF-0.006876373434721497
aF0.3883750890913671
aF7.776439442237605e-05
aa(lp76
F-0.07591606220208684
aF0.06330550854334756
aF-0.06931291520028991
aF-1.0180603573985985
aF-0.007013733241887338
aF0.3889387515861259
aF7.791402918056579e-05
aa(lp77
F-0.07737803293565305
aF0.0631169445664868
aF-0.07065756877167867
aF-1.0196067581825305
aF-0.0071511616845812784
aF0.3895118548077687
aF7.805523179761758e-05
aa(lp78
F-0.0788392910296267
aF0.06292798163862315
aF-0.07200204703590309
aF-1.0211795238675563
aF-0.007288624983964494
aF0.39009436419809734
aF7.820236035498638e-05
aa(lp79
F-0.08029947271747705
aF0.06273868131934873
aF-0.07334600173943803
aF-1.0227785770408793
aF-0.007426089670982064
aF0.3906862441838455
aF7.835744449718775e-05
aa(lp80
F-0.08175822098614069
aF0.06254910408887107
aF-0.0746892713255997
aF-1.0244038344996682
aF-0.007563522851130165
aF0.3912874583401767
aF7.850237840839613e-05
aa(lp81
F-0.08321518554630734
aF0.062359309470071254
aF-0.07603140875128386
aF-1.0260552086390244
aF-0.007700892085974975
aF0.39189796698593604
aF7.865199406729884e-05
aa(lp82
F-0.08467001989755336
aF0.06216935612300331
aF-0.07737208255220242
aF-1.027732606959723
aF-0.007838165216960694
aF0.39251772950471636
aF7.880936672017625e-05
aa(lp83
F-0.08612238433396233
aF0.06197929807470776
aF-0.07871114448073105
aF-1.029435930838966
aF-0.007975310644074057
aF0.39314670467804586
aF7.895382367935534e-05
aa(lp84
F-0.08757194507773539
aF0.06178920633337633
aF-0.08004802393162587
aF-1.0311650815036633
aF-0.008112297213726872
aF0.39378484670321634
aF7.913368974393273e-05
aa(lp85
F-0.08901837292965055
aF0.061599117363706386
aF-0.08138268171353638
aF-1.0329199480402893
aF-0.00824909404451952
aF0.394432112569493
aF7.930005358530627e-05
aa(lp86
F-0.09046134350924237
aF0.06140915237896775
aF-0.08271460800941152
aF-1.0347004322685256
aF-0.008385670940588275
aF0.3950884513132971
aF7.955710351522836e-05
aa(lp87
F-0.09190053724027634
aF0.061219384424249054
aF-0.08404362741608133
aF-1.0365064219664022
aF-0.008521997863417733
aF0.395753814413348
aF7.991754213980024e-05
aa(lp88
F-0.09333563881149658
aF0.061029953218522816
aF-0.08536953772569196
aF-1.038337813112048
aF-0.008658045402170352
aF0.396428148473863
aF8.047788323384531e-05
aa(lp89
F-0.09476635170385592
aF0.06084071987285978
aF-0.08669220921840713
aF-1.0401944442271926
aF-0.008793784432893139
aF0.39711141137158906
aF8.100577284941066e-05
aa(lp90
F-0.09619172330447286
aF0.06065138724919274
aF-0.08801210901165711
aF-1.0420773375769619
aF-0.008928993002137947
aF0.39780290130668133
aF8.084476178302689e-05
aa(lp91
F-0.09761244827438073
aF0.060462339188230796
aF-0.089327937061663
aF-1.043985204047233
aF-0.009063921958187912
aF0.3985032108956172
aF8.07284747103829e-05
aa(lp92
F-0.09902824628947783
aF0.0602736257959094
aF-0.09063941949880103
aF-1.045917889342661
aF-0.009198545538161903
aF0.3992122781786475
aF8.065848823249324e-05
aa(lp93
F-0.10043883323772343
aF0.06008529091983499
aF-0.09194628638048367
aF-1.0478752520956414
aF-0.009332836188970727
aF0.3999300465663963
aF8.063528248069505e-05
aa(lp94
F-0.10184392670208427
aF0.05989737707114946
aF-0.09324827221400053
aF-1.0498571474282945
aF-0.00946676586694342
aF0.4006564584807013
aF8.065888340093635e-05
aa(lp95
F-0.10324324810379792
aF0.059709925495349585
aF-0.0945451160316006
aF-1.0518634267745117
aF-0.009600306560902754
aF0.40139145520033187
aF8.072912503155918e-05
aa(lp96
F-0.10463506146275248
aF0.05952317887937256
aF-0.09583804960790056
aF-1.0538927566021359
aF-0.009733097864099835
aF0.4021356439583507
aF8.077236323094823e-05
aa(lp97
F-0.10602021563256774
aF0.059336851340398185
aF-0.09712524499060056
aF-1.0559461440819666
aF-0.009865360443845927
aF0.402888303499607
aF8.067920653473593e-05
aa(lp98
F-0.10739844584629073
aF0.059151082489290095
aF-0.09840652387364633
aF-1.0580234690280121
aF-0.009997068685921326
aF0.40364937439173804
aF8.056491519415779e-05
aa(lp99
F-0.10876950065393588
aF0.05896592048969988
aF-0.09968164595023579
aF-1.0601245727015827
aF-0.010128197701913946
aF0.40441879328435487
aF8.044185245989118e-05
aa(lp100
F-0.11013313337694836
aF0.058781404716000164
aF-0.10095036545929141
aF-1.0622492912582573
aF-0.01025872293089174
aF0.4051964958776146
aF8.031697322481458e-05
aa(lp101
F-0.11148910199700025
aF0.05859757408708725
aF-0.10221259138392205
aF-1.0643974571936305
aF-0.01038862019368181
aF0.4059824174714964
aF8.01819540979872e-05
aa(lp102
F-0.11283717058569841
aF0.05841445746090189
aF-0.10346796264044157
aF-1.0665688988173403
aF-0.01051786569562043
aF0.40677649131225396
aF8.004760276727273e-05
aa(lp103
F-0.11417710631858055
aF0.05823208630138246
aF-0.10471622396144928
aF-1.0687634421453494
aF-0.01064643588021317
aF0.4075786501331713
aF7.991835684141146e-05
aa(lp104
F-0.11550868218859159
aF0.05805049250720073
aF-0.10595729730451978
aF-1.0709809099345386
aF-0.010774307696769543
aF0.4083888264251299
aF7.978184345006259e-05
aa(lp105
F-0.11683167711983712
aF0.0578697032196984
aF-0.10719083465136829
aF-1.073221122011311
aF-0.010901458492294147
aF0.4092069504687386
aF7.965060277713968e-05
aa(lp106
F-0.11814587266943573
aF0.0576897475862368
aF-0.10841675240924431
aF-1.0754838953484178
aF-0.011027865839305763
aF0.4100329528407379
aF7.951294328664944e-05
aa(lp107
F-0.11945105717638634
aF0.057510650893751535
aF-0.10963470642144799
aF-1.0777690443217511
aF-0.01115350780039304
aF0.41086676196928007
aF7.93820162217194e-05
aa(lp108
F-0.12074702167251138
aF0.057332440063804
aF-0.11084462379753057
aF-1.0800763804992977
aF-0.011278362670578322
aF0.41170830667103625
aF7.924566488263138e-05
aa(lp109
F-0.12203356388545945
aF0.05715513853480251
aF-0.11204616948032747
aF-1.0824057130630547
aF-0.011402409231754273
aF0.41255751363837806
aF7.911699334370575e-05
aa(lp110
F-0.1233104841157483
aF0.05697877121852858
aF-0.11323927947801915
aF-1.0847568484790222
aF-0.011525626487044064
aF0.41341430999715534
aF7.898370234070174e-05
aa(lp111
F-0.12457758921413514
aF0.05680335975074526
aF-0.11442362910236323
aF-1.087129590992814
aF-0.011647993917357014
aF0.41427862079661615
aF7.88586396666095e-05
aa(lp112
F-0.12583468850125684
aF0.056628927172094015
aF-0.11559916128286342
aF-1.0895237422486352
aF-0.011769491214990387
aF0.415150371542391
aF7.872960972247139e-05
aa(lp113
F-0.12708159731761406
aF0.056455494852006176
aF-0.11676570892002809
aF-1.0919391015019029
aF-0.011890098539332948
aF0.4160294863123571
aF7.859532012764457e-05
aa(lp114
F-0.1283181344088221
aF0.05628308167853337
aF-0.11792294254358679
aF-1.0943754660741085
aF-0.012009796248969066
aF0.4169158877667445
aF7.846994393573174e-05
aa(lp115
F-0.12954412196101042
aF0.05611170811133114
aF-0.11907081784322139
aF-1.0968326308801168
aF-0.012128565015768903
aF0.41780949915118903
aF7.83412324570542e-05
aa(lp116
F-0.130759388185303
aF0.05594139298803999
aF-0.12020917786734155
aF-1.0993103886499147
aF-0.012246385984108366
aF0.41871024233537457
aF7.820801268890621e-05
aa(lp117
F-0.13196376449336258
aF0.05577215274316268
aF-0.12133770526624625
aF-1.101808530365401
aF-0.012363240482475515
aF0.4196180378462331
aF7.808423838563486e-05
aa(lp118
F-0.13315708558450465
aF0.055604005453504864
aF-0.12245636796494293
aF-1.10432684477451
aF-0.012479110140213476
aF0.4205328068419578
aF7.795765644380719e-05
aa(lp119
F-0.13433919199095998
aF0.055436967609453304
aF-0.12356501886404456
aF-1.1068651186297083
aF-0.012593977045181035
aF0.4214544691587891
aF7.782720085525696e-05
aa(lp120
F-0.1355099268822106
aF0.055271054876518524
aF-0.12466350250072851
aF-1.1094231367928695
aF-0.012707823453780874
aF0.42238294395114434
aF7.769279373638052e-05
aa(lp121
F-0.13666913754976742
aF0.055106280645933294
aF-0.1257515124792137
aF-1.1120006826302467
aF-0.012820631906285662
aF0.4233181491516708
aF7.75684925913157e-05
aa(lp122
F-0.13781667448360527
aF0.05494266011212515
aF-0.126829034189012
aF-1.114597537489603
aF-0.012932385240079775
aF0.42426000340847386
aF7.744188784734036e-05
aa(lp123
F-0.13895239379856558
aF0.05478020691117236
aF-0.1278959336980964
aF-1.1172134809566465
aF-0.013043066736773171
aF0.425208424109447
aF7.731199323116961e-05
aa(lp124
F-0.14007615430584716
aF0.054618932433376344
aF-0.12895192075025436
aF-1.1198482912564547
aF-0.013152659823432687
aF0.4261633274618213
aF7.719219290657131e-05
aa(lp125
F-0.1411878177325109
aF0.05445884988099805
aF-0.12999698836459098
aF-1.1225017447522272
aF-0.013261148196752911
aF0.4271246303883159
aF7.707042389365678e-05
aa(lp126
F-0.14228725117451904
aF0.05429997094408827
aF-0.13103101131439823
aF-1.1251736162103074
aF-0.013368515977818686
aF0.42809224861984063
aF7.694581376790983e-05
aa(lp127
F-0.1433743239209351
aF0.0541423066245518
aF-0.13205385725494748
aF-1.12786367888026
aF-0.013474747420689992
aF0.4290660973388371
aF7.681831020658329e-05
aa(lp128
F-0.14444890861240633
aF0.05398586731898142
aF-0.13306539597389327
aF-1.1305717045576709
aF-0.013579827031829451
aF0.4300460912263805
aF7.668794188350403e-05
aa(lp129
F-0.14551088163170736
aF0.053830661317193405
aF-0.13406535042117504
aF-1.133297463941706
aF-0.013683739577536002
aF0.4310321439082547
aF7.656809340782359e-05
aa(lp130
F-0.1465601221295387
aF0.053676698897517805
aF-0.1350537321764244
aF-1.1360407260988434
aF-0.01378647008441629
aF0.4320241698051513
aF7.644666148999572e-05
aa(lp131
F-0.14759651434668442
aF0.0535239888581335
aF-0.13603043096010564
aF-1.1388012587475556
aF-0.013888003983608403
aF0.4330220822234719
aF7.632284152324596e-05
aa(lp132
F-0.14861994438082637
aF0.05337253939417396
aF-0.13699532961253957
aF-1.1415788283213244
aF-0.013988326811127882
aF0.4340257940042889
aF7.619658891016463e-05
aa(lp133
F-0.1496303013818294
aF0.0532223581784841
aF-0.13794831297216023
aF-1.1443732000247935
aF-0.01408742433171139
aF0.4350352175648927
aF7.606792930786996e-05
aa(lp134
F-0.1506274776071071
aF0.05307345238325626
aF-0.1388892686537825
aF-1.1471841378765852
aF-0.014185282545857757
aF0.436050264915764
aF7.593689489213953e-05
aa(lp135
F-0.15161136837227324
aF0.0529258286958803
aF-0.1398180870765377
aF-1.150011404749894
aF-0.014281887686101979
aF0.4370708476750215
aF7.58035184555663e-05
aa(lp136
F-0.15258187199238518
aF0.052779493333969384
aF-0.1407346614221774
aF-1.152854762411873
aF-0.014377226212299136
aF0.43809687708237716
aF7.566783286076895e-05
aa(lp137
F-0.15353888972262966
aF0.05263445206002322
aF-0.1416388875869855
aF-1.1557139715619218
aF-0.014471284806827175
aF0.43912826401278593
aF7.552987099078053e-05
aa(lp138
F-0.15448232569929937
aF0.05249071019577105
aF-0.14253066413321633
aF-1.1585887918688866
aF-0.014564050369795621
aF0.4401649189898097
aF7.538966574554804e-05
aa(lp139
F-0.15541208688116587
aF0.05234827263619724
aF-0.14340989224063763
aF-1.161478982007189
aF-0.014655510014270843
aF0.44120675219869726
aF7.52472500425334e-05
aa(lp140
F-0.15632808299128378
aF0.0522071438632495
aF-0.1442764756582593
aF-1.1643842996918883
aF-0.014745651061521306
aF0.44225367349918265
aF7.510265681749518e-05
aa(lp141
F-0.15723022645925436
aF0.05206732795922966
aF-0.14513032065627993
aF-1.1673045017126928
aF-0.014834461036285567
aF0.4433055924380025
aF7.495591902508744e-05
aa(lp142
F-0.158118432363975
aF0.05192882861986711
aF-0.1459713359782795
aF-1.170239343966925
aF-0.014921927662065657
aF0.44436241826113465
aF7.48070696392484e-05
aa(lp143
F-0.1589926183768999
aF0.051791649167075564
aF-0.14679943279368468
aF-1.1731885814914562
aF-0.015008038856448422
aF0.4454240599257591
aF7.465614165337692e-05
aa(lp144
F-0.15985270470583696
aF0.051655792561393965
aF-0.14761452465053287
aF-1.176151968493622
aF-0.015092782726457376
aF0.44649042611194356
aF7.450316808030372e-05
aa(lp145
F-0.16069861403930424
aF0.05152126141411285
aF-0.14841652742856049
aF-1.1791292583811264
aF-0.015176147563937576
aF0.4475614252340544
aF7.434818195206214e-05
aa(lp146
F-0.16153027149146923
aF0.05138805799908748
aF-0.14920535929264012
aF-1.1821202037909528
aF-0.015258121840975943
aF0.44863696545189635
aF7.419121631946188e-05
aa(lp147
F-0.16234760454769281
aF0.05125618426423959
aF-0.1499809406465905
aF-1.1851245566172888
aF-0.01533869420535944
aF0.44971695468158157
aF7.403230425147182e-05
aa(lp148
F-0.1631505430106991
aF0.051125641842749855
aF-0.15074319408738301
aF-1.1881420680384818
aF-0.015417853476073466
aF0.45080130060613105
aF7.387147883441652e-05
aa(lp149
F-0.16393901894739138
aF0.0509964320639431
aF-0.15149204435976676
aF-1.1911724885430368
aF-0.015495588638842758
aF0.4518899106858102
aF7.370877317099136e-05
aa(lp150
F-0.16471296663633367
aF0.050868555963868856
aF-0.15222741831133474
aF-1.1942155679546707
aF-0.015571888841717047
aF0.4529826921682008
aF7.354422037910122e-05
aa(lp151
F-0.16547232251591631
aF0.0507420142955798
aF-0.15294924484805197
aF-1.197271055456436
aF-0.01564674339070368
aF0.4540795520980124
aF7.337785359052735e-05
aa(lp152
F-0.1662170251332236
aF0.050616807539111144
aF-0.15365745489026614
aF-1.2003386996139305
aF-0.015720141745449334
aF0.45518039732663457
aF7.320970594942814e-05
aa(lp153
F-0.16694701509361987
aF0.05049293591116369
aF-0.1543519813292205
aF-1.2034182483976044
aF-0.015792073514972978
aF0.456285134521434
aF7.303981061067776e-05
aa(lp154
F-0.16766223501107066
aF0.05037039937449407
aF-0.1550327589840884
aF-1.206509449204182
aF-0.01586252845345204
aF0.45739367017479754
aF7.286820073804836e-05
aa(lp155
F-0.16836262945921388
aF0.05024919764701514
aF-0.15569972455954714
aF-1.2096120488772117
aF-0.015931496456063877
aF0.45850591061292567
aF7.269490950224068e-05
aa(lp156
F-0.1690481449231952
aF0.05012933021061039
aF-0.1563528166039098
aF-1.212725793726762
aF-0.015998967554884436
aF0.45962176200437793
aF7.251997007876691e-05
aa(lp157
F-0.16971872975228208
aF0.05001079631966561
aF-0.15699197546783075
aF-1.2158504295482735
aF-0.01606493191484603
aF0.46074113036837433
aF7.234341564569264e-05
aa(lp158
F-0.17037433411326852
aF0.04989359500932175
aF-0.1576171432636023
aF-1.2189857016405903
aF-0.016129379829756086
aF0.4618639215828553
aF7.216527938124092e-05
aa(lp159
F-0.17101490994468324
aF0.04977772510345275
aF-0.15822826382505717
aF-1.22213135482318
aF-0.016192301718378686
aF0.46299004139230343
aF7.198559446126419e-05
aa(lp160
F-0.1716404109118125
aF0.04966318522237213
aF-0.15882528266809218
aF-1.2252871334525637
aF-0.016253688120580638
aF0.4641193954153307
aF7.180439405658872e-05
aa(lp161
F-0.17225079236254828
aF0.04954997379027258
aF-0.1594081469518271
aF-1.2284527814379675
aF-0.01631352969354383
aF0.46525188915203414
aF7.162171133023579e-05
aa(lp162
F-0.17284601128407187
aF0.04943808904240235
aF-0.15997680544041237
aF-1.2316280422562171
aF-0.016371817208045515
aF0.46638742799112354
aF7.143757943452647e-05
aa(lp163
F-0.17342602626038217
aF0.049327529031982766
aF-0.16053120846549868
aF-1.2348126589658874
aF-0.016428541544808196
aF0.46752591721682496
aF7.125203150807013e-05
aa(lp164
F-0.17399079743067744
aF0.04921829163687097
aF-0.1610713078893803
aF-1.2380063742207281
aF-0.016483693690920682
aF0.4686672620155637
aF7.1065100672648e-05
aa(lp165
F-0.17454028644859837
aF0.04911037456597221
aF-0.16159705706882435
aF-1.24120893028238
aF-0.01653726473633188
aF0.4698113674824302
aF7.087682002998923e-05
aa(lp166
F-0.17507445644234007
aF0.04900377536540595
aF-0.1621084108195967
aF-1.2444200690323997
aF-0.01658924587041885
aF0.4709581386274329
aF7.068722265844977e-05
aa(lp167
F-0.17559327197563968
aF0.04889849142443008
aF-0.162605325381695
aF-1.2476395319836089
aF-0.016639628378630592
aF0.4721074803815422
aF7.049634160959548e-05
aa(lp168
F-0.1760966990096457
aF0.048794519981127694
aF-0.1630877583852989
aF-1.2508670602907894
aF-0.01668840363920903
aF0.4732592976025288
aF7.030420990469457e-05
aa(lp169
F-0.176584704865675
aF0.04869185812786076
aF-0.1635556688174465
aF-1.2541023947607364
aF-0.016735563119988597
aF0.4744134950806012
aF7.011086053112442e-05
aa(lp170
F-0.1770572581888624
aF0.04859050281649504
aF-0.16400901698944595
aF-1.257345275861691
aF-0.01678109837527581
aF0.4755699775438466
aF6.99163264386969e-05
aa(lp171
F-0.17751432891270724
aF0.04849045086340085
aF-0.16444776450503054
aF-1.2605954437321696
aF-0.016825001042810196
aF0.47672864966347833
aF6.972064053590535e-05
aa(lp172
F-0.17795588822452155
aF0.048391698954233946
aF-0.16487187422926455
aF-1.2638526381892052
aF-0.016867262840807855
aF0.4778894160588953
aF6.952383568610008e-05
aa(lp173
F-0.17838190853178276
aF0.04829424364850102
aF-0.16528131025820741
aF-1.267116598736023
aF-0.01690787556508904
aF0.47905218130255706
aF6.932594470359322e-05
aa(lp174
F-0.17879236342939453
aF0.048198081383914196
aF-0.1656760378893429
aF-1.2703870645691628
aF-0.01694683108629093
aF0.48021684992467933
aF6.912700034970051e-05
aa(lp175
F-0.17918722766785822
aF0.04810320848053922
aF-0.1660560235927792
aF-1.2736637745850725
aF-0.016984121347166897
aF0.48138332641775394
aF6.892703532872116e-05
aa(lp176
F-0.17956647712235718
aF0.04800962114474132
aF-0.1664212349832261
aF-1.2769464673861843
aF-0.017019738359973523
aF0.4825515152408981
aF6.872608228386229e-05
aa(lp177
F-0.1799300887627558
aF0.04791731547293354
aF-0.16677164079275406
aF-1.2802348812864972
aF-0.017053674203946476
aF0.48372132082403774
aF6.852417379310953e-05
aa(lp178
F-0.1802780406245145
aF0.04782628745513182
aF-0.16710721084434052
aF-1.2835287543166805
aF-0.01708592102286652
aF0.48489264757192857
aF6.832134236505052e-05
aa(lp179
F-0.18061031178052217
aF0.04773653297832121
aF-0.16742791602620768
aF-1.286827824228718
aF-0.017116471022716788
aF0.486065399868021
aF6.811762043465118e-05
aa(lp180
F-0.18092688231384618
aF0.04764804782963759
aF-0.1677337282669557
aF-1.2901318285001115
aF-0.017145316469432452
aF0.48723948207817225
aF6.79130403589937e-05
aa(lp181
F-0.18122773329140074
aF0.04756082769936917
aF-0.1680246205114952
aF-1.2934405043376602
aF-0.01717244968674396
aF0.48841479855421127
aF6.770763441297537e-05
aa(lp182
F-0.1815128467385333
aF0.04747486818378228
aF-0.1683005666977821
aF-1.2967535886808368
aF-0.017197863054114918
aF0.489591253637361
aF6.750143478497344e-05
aa(lp183
F-0.18178220561452893
aF0.04739016478777565
aF-0.16856154173435806
aF-1.300070818204776
aF-0.01722154900477576
aF0.49076875166152284
aF6.729447357248134e-05
aa(lp184
F-0.18203579378903195
aF0.0473067129273673
aF-0.16880752147869865
aF-1.3033919293228962
aF-0.017243500023854243
aF0.491947196956428
aF6.708678277771712e-05
aa(lp185
F-0.18227359601938378
aF0.0472245079320186
aF-0.16903848271637184
aF-1.306716658189171
aF-0.01726370864660394
aF0.4931264938506614
aF6.687839430320931e-05
aa(lp186
F-0.18249559792887618
aF0.04714354504679948
aF-0.1692544031410085
aF-1.3100447407000702
aF-0.017282167456731674
aF0.49430654667456164
aF6.666933994736265e-05
aa(lp187
F-0.182701785985918
aF0.04706381943439902
aF-0.1694552613350867
aF-1.3133759124961881
aF-0.017298869084825086
aF0.4954872597630041
aF6.645965140000766e-05
aa(lp188
F-0.18289214748411411
aF0.04698532617698555
aF-0.1696410367515309
aF-1.3167099089635772
aF-0.01731380620688128
aF0.49666853745807005
aF6.624936023793701e-05
aa(lp189
F-0.18306667052325454
aF0.04690806027792068
aF-0.16981170969612705
aF-1.3200464652348063
aF-0.017326971542937664
aF0.49785028411160814
aF6.603849792043177e-05
aa(lp190
F-0.18322534399121146
aF0.046832016663330714
aF-0.1699672613107547
aF-1.3233853161897622
aF-0.01733835785580598
aF0.4990324040876933
aF6.582709578478126e-05
aa(lp191
F-0.1833681575467419
aF0.04675719018354019
aF-0.1701076735574359
aF-1.3267261964562114
aF-0.01734795794991059
aF0.5002148017649874
aF6.561518504179839e-05
aa(lp192
F-0.1834951016031935
aF0.046683575614371094
aF-0.17023292920320154
aF-1.3300688404101428
aF-0.01735576467023199
aF0.5013973815390078
aF6.54027967713344e-05
aa(lp193
F-0.18360616731311047
aF0.04661116765831206
aF-0.17034301180577532
aF-1.3334129821759078
aF-0.01736177090135664
aF0.5025800478243079
aF6.518996191779561e-05
aa(lp194
F-0.18370134655373718
aF0.0465399609455612
aF-0.17043790570007422
aF-1.3367583556261768
aF-0.017365969566634058
aF0.5037627050565755
aF6.497671128566296e-05
aa(lp195
F-0.18378063191341565
aF0.046469950034946673
aF-0.17051759598552585
aF-1.3401046943817325
aF-0.017368353627442226
aF0.5049452576946549
aF6.476307553501842e-05
aa(lp196
F-0.18384401667887415
aF0.046401129414729084
aF-0.17058206851420135
aF-1.3434517318111148
aF-0.017368916082562316
aF0.5061276102224957
aF6.454908517707375e-05
aa(lp197
F-0.1838914948234033
aF0.04633349350328891
aF-0.17063130987976333
aF-1.3467992010301395
aF-0.017367649967663684
aF0.5073096671510362
aF6.433477056970032e-05
aa(lp198
F-0.18392306099591585
aF0.04626703664970366
aF-0.17066530740722785
aF-1.3501468349013077
aF-0.01736454835490021
aF0.5084913330200244
aF6.41201619129328e-05
aa(lp199
F-0.18393871051088656
aF0.04620175313421791
aF-0.1706840491435405
aF-1.3534943660331227
aF-0.017359604352618883
aF0.509672512399784
aF6.390528924436135e-05
aa(lp200
F-0.1839384393391682
aF0.04613763716861023
aF-0.17068752384896954
aF-1.356841526779337
aF-0.01735281110518167
aF0.5108531098929285
aF6.369018243409945e-05
aa(lp201
F-0.1839222440996795
aF0.046074682896461085
aF-0.17067572098932884
aF-1.3601880492381437
aF-0.017344161792901647
aF0.5120330301360307
aF6.347487117840293e-05
aa(lp202
F-0.18389012205196079
aF0.046012884393325196
aF-0.17064863072903452
aF-1.3635336652513332
aF-0.017333649632094293
aF0.5132121778012511
aF6.325938499155156e-05
aa(lp203
F-0.18384207108959275
aF0.045952235666811385
aF-0.1706062439249258
aF-1.3668781064034334
aF-0.017321267875244975
aF0.5143904575979319
aF6.304375320045987e-05
aa(lp204
F-0.18377808973447354
aF0.04589273065657339
aF-0.17054855212081776
aF-1.3702211040208512
aF-0.01730700981129347
aF0.5155677742741613
aF6.282800494389692e-05
aa(lp205
F-0.18369817713195022
aF0.04583436323421599
aF-0.17047554754286023
aF-1.373562389171035
aF-0.017290868766036565
aF0.5167440326183131
aF6.261216917120587e-05
aa(lp206
F-0.18360233304679988
aF0.04577712720312015
aF-0.17038722309572046
aF-1.376901692661675
aF-0.017272838102649724
aF0.5179191374605673
aF6.239627463926367e-05
aa(lp207
F-0.183490557860056
aF0.04572101629819088
aF-0.1702835723595719
aF-1.3802387450399618
aF-0.017252911222328787
aF0.5190929936744173
aF6.218034990868245e-05
aa(lp208
F-0.18336285256667445
aF0.04566602418553105
aF-0.1701645895878772
aF-1.3835732765919193
aF-0.017231081565052528
aF0.5202655061781695
aF6.196442333980484e-05
aa(lp209
F-0.18321921877403377
aF0.04561214446204475
aF-0.17003026970595952
aF-1.3869050173418331
aF-0.017207342610467
aF0.5214365799364382
aF6.174852308866839e-05
aa(lp210
F-0.18305965870126442
aF0.04555937065497375
aF-0.16988060831035764
aF-1.390233697051791
aF-0.017181687878892512
aF0.522606119961645
aF6.153267710299209e-05
aa(lp211
F-0.1828841751794014
aF0.04550769622137052
aF-0.16971560166896077
aF-1.3935590452213549
aF-0.017154110932454142
aF0.5237740313155239
aF6.131691311820322e-05
aa(lp212
F-0.1826927716523546
aF0.045457114547511224
aF-0.16953524672191925
aF-1.3968807910873815
aF-0.01712460537633659
aF0.5249402191106409
aF6.110125865350913e-05
aa(lp213
F-0.18248545217869114
aF0.04540761894825226
aF-0.16933954108332686
aF-1.4001986636240134
aF-0.017093164860164253
aF0.5261045885119312
aF6.088574100802145e-05
aa(lp214
F-0.18226222143422363
aF0.045359202666333795
aF-0.1691284830436703
aF-1.4035123915428538
aF-0.017059783079507267
aF0.5272670447382605
aF6.067038725693163e-05
aa(lp215
F-0.18202308471539821
aF0.04531185887163365
aF-0.16890207157304132
aF-1.4068217032933488
aF-0.017024453777514353
aF0.5284274930640147
aF6.045522424774309e-05
aa(lp216
F-0.18176804794347606
aF0.04526558066037502
aF-0.16866030632510665
aF-1.4101263270633917
aF-0.016987170746673184
aF0.5295858388207251
aF6.0240278596560805e-05
aa(lp217
F-0.18149711766950194
aF0.045220361054291454
aF-0.1684031876418307
aF-1.4134259907801703
aF-0.016947927830699004
aF0.5307419873987316
aF6.002557668444012e-05
aa(lp218
F-0.18121030108005295
aF0.04517619299975254
aF-0.168130716558946
aF-1.4167204221112735
aF-0.0169067189265522
aF0.5318958442488921
aF5.9811144653798285e-05
aa(lp219
F-0.18090760600376088
aF0.04513306936685359
aF-0.16784289481216538
aF-1.4200093484660772
aF-0.01686353798658547
aF0.5330473148843421
aF5.959700840488852e-05
aa(lp220
F-0.18058904091860056
aF0.045090982948472746
aF-0.16753972484413093
aF-1.423292496997428
aF-0.01681837902082121
aF0.5341963048823084
aF5.9383193592340594e-05
aa(lp221
F-0.18025461495993758
aF0.045049926459299124
aF-0.16722120981209285
aF-1.4265695946036412
aF-0.01677123609935968
aF0.5353427198859851
aF5.916972562176795e-05
aa(lp222
F-0.17990433792932728
aF0.04500989253483496
aF-0.16688735359631282
aF-1.4298403679308327
aF-0.016722103354918506
aF0.5364864656064746
aF5.8956629646444436e-05
aa(lp223
F-0.1795382203040576
aF0.044970873730375505
aF-0.1665381608091847
aF-1.4331045433756042
aF-0.016670974985503986
aF0.5376274478247999
aF5.874393056405274e-05
aa(lp224
F-0.1791562732474276
aF0.044932862519969974
aF-0.1661736368050663
aF-1.4363618470880977
aF-0.016617845257214603
aF0.5387655723939933
aF5.853165301350461e-05
aa(lp225
F-0.1787585086197535
aF0.044895851295366725
aF-0.16579378769081465
aF-1.439612004975438
aF-0.016562708507177178
aF0.5399007452412664
aF5.831982137183646e-05
aa(lp226
F-0.17834493899009374
aF0.044859832364946305
aF-0.16539862033701777
aF-1.4428547427055836
aF-0.016505559146615917
aF0.5410328723702672
aF5.810845975118114e-05
aa(lp227
F-0.17791557764868407
aF0.044824797952645594
aF-0.1649881423899152
aF-1.4460897857116004
aF-0.016446391664054646
aF0.5421618598634279
aF5.789759199581841e-05
aa(lp228
F-0.17747043862007392
aF0.044790740196876504
aF-0.16456236228399895
aF-1.44931685919638
aF-0.0163852006286524
aF0.5432876138844104
aF5.7687241679303874e-05
aa(lp229
F-0.1770095366769543
aF0.04475765114944252
aF-0.16412128925528718
aF-1.4525356881378169
aF-0.016321980693672484
aF0.5444100406806532
aF5.7477432101681745e-05
aa(lp230
F-0.17653288735466774
aF0.04472552277445661
aF-0.16366493335526114
aF-1.4557459972944655
aF-0.016256726600085033
aF0.5455290465860254
aF5.7268186286778214e-05
aa(lp231
F-0.17604050696639026
aF0.0446943469472637
aF-0.16319330546545682
aF-1.4589475112116939
aF-0.016189433180303046
aF0.5466445380235915
aF5.705952697958214e-05
aa(lp232
F-0.1755324126189748
aF0.04466411545337128
aF-0.16270641731270202
aF-1.46213995422835
aF-0.016120095362051754
aF0.5477564215084942
aF5.685147664371072e-05
aa(lp233
F-0.17500862222944547
aF0.04463481998739146
aF-0.16220428148498842
aF-1.4653230504839616
aF-0.016048708172371105
aF0.548864603650958
aF5.6644057458963973e-05
aa(lp234
F-0.17446915454213174
aF0.04460645215199782
aF-0.1616869114479692
aF-1.4684965239264836
aF-0.01597526674175105
aF0.5499689911594188
aF5.643729131896909e-05
aa(lp235
F-0.17391402914643067
aF0.04457900345690063
aF-0.16115432156207105
aF-1.4716600983206132
aF-0.015899766308399236
aF0.5510694908437854
aF5.623119982891582e-05
aa(lp236
F-0.17334326649518556
aF0.04455246531784347
aF-0.16060652710020973
aF-1.474813497256688
aF-0.015822202222640552
aF0.5521660096188368
aF5.602580430338472e-05
aa(lp237
F-0.1727568879236687
aF0.04452682905562518
aF-0.16004354426609782
aF-1.4779564441601856
aF-0.015742569951447953
aF0.5532584545077589
aF5.5821125764270566e-05
aa(lp238
F-0.1721549156691555
aF0.044502085895150076
aF-0.15946539021313266
aF-1.48108866230184
aF-0.015660865083103784
aF0.5543467326458277
aF5.561718493880109e-05
aa(lp239
F-0.17153737289107665
aF0.044478226964510065
aF-0.15887208306385198
aF-1.484209874808394
aF-0.015577083331990755
aF0.555430751284241
aF5.5414002257653545e-05
aa(lp240
F-0.17090428369173485
aF0.04445524329410203
aF-0.1582636419299445
aF-1.4873198046740013
aF-0.01549122054351158
aF0.5565104177941051
aF5.5211597853170016e-05
aa(lp241
F-0.17025567313757203
aF0.04443312581578398
aF-0.15764008693280218
aF-1.4904181747722955
aF-0.01540327269913617
aF0.557585639670579
aF5.500999155767346e-05
aa(lp242
F-0.1695915672809724
aF0.04441186536207302
aF-0.15700143922460016
aF-1.4935047078691457
aF-0.015313235921575118
aF0.5586563245371817
aF5.4809202901885895e-05
aa(lp243
F-0.1689119931825862
aF0.04439145266538914
aF-0.15634772100989003
aF-1.4965791266361075
aF-0.015221106480078085
aF0.5597223801502671
aF5.46092511134491e-05
aa(lp244
F-0.16821697893415866
aF0.04437187835734756
aF-0.15567895556769146
aF-1.4996411536645922
aF-0.015126880795855554
aF0.5607837144036686
aF5.4410155115550954e-05
aa(lp245
F-0.16750655368184786
aF0.044353132968103545
aF-0.15499516727406695
aF-1.5026905114807652
aF-0.01503055544762224
aF0.5618402353335202
aF5.4211933525657506e-05
aa(lp246
F-0.16678074765001513
aF0.04433520692575287
aF-0.15429638162516343
aF-1.50572692256119
aF-0.014932127177260326
aF0.5628918511232558
aF5.40146046543523e-05
aa(lp247
F-0.16603959216547032
aF0.04431809055579115
aF-0.1535826252607042
aF-1.5087501093492335
aF-0.014831592895600485
aF0.5639384701087916
aF5.381818650428461e-05
aa(lp248
F-0.1652831196821545
aF0.044301774080635736
aF-0.15285392598791403
aF-1.5117597942722452
aF-0.014728949688318525
aF0.5649800007838952
aF5.362269676922801e-05
aa(lp249
F-0.16451136380624162
aF0.0442862476192134
aF-0.15211031280585974
aF-1.5147556997595264
aF-0.014624194821945286
aF0.5660163518057452
aF5.3428152833249715e-05
aa(lp250
F-0.16372435932163992
aF0.04427150118661685
aF-0.15135181593018765
aF-1.517737548261102
aF-0.014517325749987242
aF0.5670474320006836
aF5.323457176999327e-05
aa(lp251
F-0.16292214221587384
aF0.04425752469383391
aF-0.15057846681823914
aF-1.5207050622673084
aF-0.014408340119155106
aF0.568073150370167
aF5.304197034207425e-05
aa(lp252
F-0.16210474970632593
aF0.04424430794755226
aF-0.14979029819452438
aF-1.5236579643292119
aF-0.014297235775697496
aF0.5690934160969164
aF5.285036500059066e-05
aa(lp253
F-0.16127222026681823
aF0.04423184065004319
aF-0.14898734407653436
aF-1.526595977079867
aF-0.014184010771836567
aF0.5701081385512717
aF5.2659771884750715e-05
aa(lp254
F-0.16042459365451128
aF0.044220112399127535
aF-0.14816963980086978
aF-1.5295188232564312
aF-0.014068663372302295
aF0.5711172272977522
aF5.247020682161613e-05
aa(lp255
F-0.15956191093709898
aF0.044209112688227116
aF-0.1473372220496657
aF-1.5324262257231445
aF-0.013951192060961893
aF0.5721205921018265
aF5.228168532596455e-05
aa(lp256
F-0.15868421452027637
aF0.044198830906504706
aF-0.1464901288772893
aF-1.535317907495185
aF-0.013831595547540626
aF0.5731181429368951
aF5.2094222600270864e-05
aa(lp257
F-0.15779154817545676
aF0.044189256339095755
aF-0.14562839973728803
aF-1.5381935917634149
aF-0.013709872774430105
aF0.5741097899914861
aF5.1907833534808324e-05
aa(lp258
F-0.15688395706771455
aF0.04418037816743501
aF-0.14475207550956457
aF-1.5410530019200208
aF-0.013586022923579869
aF0.5750954436766692
aF5.1722532707871586e-05
aa(lp259
F-0.15596148778392838
aF0.04417218546968089
aF-0.14386119852775406
aF-1.543895861585065
aF-0.013460045423467891
aF0.5760750146336886
aF5.153833438612052e-05
aa(lp260
F-0.1550241883610996
aF0.044164667221240975
aF-0.14295581260677884
aF-1.5467218946339505
aF-0.013331939956145403
aF0.5770484137418163
aF5.135525252504709e-05
aa(lp261
F-0.1540721083148198
aF0.04415781229540116
aF-0.14203596307055502
aF-1.549530825225811
aF-0.01320170646435118
aF0.5780155521264291
aF5.117330076956642e-05
aa(lp262
F-0.15310529866786046
aF0.04415160946406156
aF-0.14110169677982437
aF-1.552322377832836
aF-0.013069345158690222
aF0.5789763411673104
aF5.099249245473088e-05
aa(lp263
F-0.15212381197885746
aF0.04414604739858201
aF-0.1401530621600845
aF-1.5550962772705315
aF-0.012934856524871535
aF0.5799306925071781
aF5.0812840606569474e-05
aa(lp264
F-0.15112770237106204
aF0.04414111467073976
aF-0.1391901092295898
aF-1.5578522487289288
aF-0.012798241330999442
aF0.5808785180604389
aF5.063435794305281e-05
aa(lp265
F-0.15011702556112952
aF0.044136799753802296
aF-0.13821288962739445
aF-1.560590017804745
aF-0.012659500634912646
aF0.5818197300221728
aF5.0457056875183445e-05
aa(lp266
F-0.14909183888791622
aF0.04413309102371754
aF-0.13722145664140836
aF-1.5633093105344977
aF-0.012518635791565027
aF0.5827542408773458
aF5.028094950821275e-05
aa(lp267
F-0.14805220134125432
aF0.04412997676042429
aF-0.1362158652364366
aF-1.5660098534285822
aF-0.012375648460441875
aF0.5836819634102529
aF5.010604764298449e-05
aa(lp268
F-0.14699817359067394
aF0.04412744514928488
aF-0.13519617208217136
aF-1.5686913735063104
aF-0.012230540613005056
aF0.5846028107141915
aF4.993236277740537e-05
aa(lp269
F-0.14592981801404067
aF0.044125484282642985
aF-0.13416243558110574
aF-1.5713535983319165
aF-0.012083314540160353
aF0.5855166962013656
aF4.975990610804253e-05
aa(lp270
F-0.14484719872607685
aF0.044124082161508205
aF-0.13311471589633736
aF-1.57399625605153
aF-0.011933972859739956
aF0.5864235336130204
aF4.958868853184884e-05
aa(lp271
F-0.14375038160673329
aF0.04412322669736978
aF-0.13205307497922944
aF-1.5766190754311165
aF-0.011782518523992862
aF0.5873232370298069
aF4.9418720648014875e-05
aa(lp272
F-0.14263943432937856
aF0.04412290571414151
aF-0.1309775765968963
aF-1.5792217858953865
aF-0.011628954827075707
aF0.5882157208823773
aF4.925001275994939e-05
aa(lp273
F-0.14151442638877143
aF0.04412310695023957
aF-0.1298882863594798
aF-1.58180411756767
aF-0.011473285412536258
aF0.5891008999622075
aF4.908257487738576e-05
aa(lp274
F-0.14037542912878223
aF0.04412381806079512
aF-0.12878527174718216
aF-1.5843658013107564
aF-0.011315514280781628
aF0.5899786894326495
aF4.891641671861609e-05
aa(lp275
F-0.1392225157698278
aF0.044125026620003144
aF-0.1276686021370207
aF-1.5869065687686938
aF-0.011155645796522983
aF0.5908490048402093
aF4.87515477128526e-05
aa(lp276
F-0.1380557614359845
aF0.04412672012360916
aF-0.12653834882926907
aF-1.5894261524095463
aF-0.010993684696188336
aF0.5917117621260496
aF4.85879770027143e-05
aa(lp277
F-0.1368752431817431
aF0.04412888599153497
aF-0.12539458507354903
aF-1.591924285569102
aF-0.010829636095294708
aF0.5925668776377166
aF4.8425713446840415e-05
aa(lp278
F-0.13568104001836875
aF0.04413151157064473
aF-0.12423738609453645
aF-1.5944007024955256
aF-0.010663505495770829
aF0.5934142681410874
aF4.826476562262858e-05
aa(lp279
F-0.13447323293982932
aF0.04413458413765225
aF-0.12306682911724494
aF-1.596855138394948
aF-0.010495298793221242
aF0.5942538508325357
aF4.8105141829097967e-05
aa(lp280
F-0.13325190494825406
aF0.04413809090217041
aF-0.12188299339184955
aF-1.5992873294779861
aF-0.010325022284122508
aF0.5950855433513137
aF4.7946850089876074e-05
aa(lp281
F-0.13201714107888513
aF0.04414201900990346
aF-0.1206859602180132
aF-1.6016970130071781
aF-0.010152682672941999
aF0.5959092637921475
aF4.7789898156308285e-05
aa(lp282
F-0.13076902842448354
aF0.044146355545982355
aF-0.1194758129686777
aF-1.60408392734533
aF-0.009978287079169573
aF0.5967249307180412
aF4.763429351068937e-05
aa(lp283
F-0.12950765615915094
aF0.04415108753844393
aF-0.11825263711328098
aF-1.6064478120047543
aF-0.009801843044252247
aF0.597532463173288
aF4.7480043369615576e-05
aa(lp284
F-0.1282331155615284
aF0.04415620196185352
aF-0.11701652024036217
aF-1.6087884076973922
aF-0.009623358538421792
aF0.5983317806966825
aF4.732715468745656e-05
aa(lp285
F-0.12694550003733315
aF0.044161685741071335
aF-0.1157675520795155
aF-1.6111054563858023
aF-0.009442841967405021
aF0.599122803334932
aF4.717563415994469e-05
aa(lp286
F-0.1256449051411941
aF0.044167525755162036
aF-0.11450582452265397
aF-1.6133987013350006
aF-0.009260302179006412
aF0.599905451656261
aF4.7025488227881536e-05
aa(lp287
F-0.12433142859774657
aF0.04417370884144716
aF-0.11323143164454384
aF-1.6156678871651335
aF-0.009075748469552499
aF0.6006796467642042
aF4.687672308095898e-05
aa(lp288
F-0.12300517032194674
aF0.04418022179969961
aF-0.11194446972257042
aF-1.6179127599049672
aF-0.008889190590187427
aF0.6014453103115831
aF4.6729344661693574e-05
aa(lp289
F-0.12166623243856667
aF0.044187051396479375
aF-0.11064503725569602
aF-1.6201330670461702
aF-0.008700638753008878
aF0.6022023645146612
aF4.6583358669472246e-05
aa(lp290
F-0.12031471930082979
aF0.044194184369609174
aF-0.10933323498257058
aF-1.6223285575983724
aF-0.00851010363703351
aF0.6029507321674714
aF4.6438770564707485e-05
aa(lp291
F-0.11895073750814804
aF0.04420160743278881
aF-0.10800916589875599
aF-1.6244989821449731
aF-0.008317596393980982
aF0.6036903366563094
aF4.629558557309917e-05
aa(lp292
F-0.11757439592292086
aF0.04420930728034645
aF-0.1066729352730247
aF-1.6266440928996786
aF-0.008123128653865509
aF0.6044211019743881
aF4.615380869000198e-05
aa(lp293
F-0.11618580568635738
aF0.044217270592125164
aF-0.1053246506626939
aF-1.62876364376374
aF-0.007926712530383946
aF0.6051429527366443
aF4.6013444684894865e-05
aa(lp294
F-0.11478508023328252
aF0.04422548403850246
aF-0.10396442192795652
aF-1.6308573903838683
aF-0.00772836062608924
aF0.6058558141946925
aF4.587449810595064e-05
aa(lp295
F-0.11337233530588896
aF0.0442339342855406
aF-0.10259236124517053
aF-1.6329250902107963
aF-0.007528086037338186
aF0.6065596122519176
aF4.573697328470279e-05
aa(lp296
F-0.11194768896639638
aF0.044242608000265055
aF-0.10120858311906884
aF-1.634966502558459
aF-0.0073259023590023726
aF0.6072542734786991
aF4.560087434080712e-05
aa(lp297
F-0.11051126160858069
aF0.044251491856068255
aF-0.09981320439385195
aF-1.6369813886637614
aF-0.007121823688931227
aF0.6079397251277586
aF4.546620518689474e-05
aa(lp298
F-0.1090631759681357
aF0.04426057253823561
aF-0.0984063442631264
aF-1.6389695117469032
aF-0.006915864632156154
aF0.6086158951496232
aF4.533296953351338e-05
aa(lp299
F-0.10760355713183112
aF0.044269836749590466
aF-0.0969881242786527
aF-1.640930637072224
aF-0.006708040304824777
aF0.6092827122081953
aF4.5201170894154455e-05
aa(lp300
F-0.10613253254543059
aF0.04427927121625424
aF-0.09555866835786661
aF-1.642864532009538
aF-0.006498366337854451
aF0.6099401056964209
aF4.507081259036214e-05
aa(lp301
F-0.10465023202033472
aF0.044288862693518206
aF-0.09411810279013912
aF-1.6447709660959187
aF-0.0062868588802942466
aF0.6105880057520465
aF4.494189775692015e-05
aa(lp302
F-0.10315678773891486
aF0.0442985979718225
aF-0.09266655624174033
aF-1.6466497110978995
aF-0.006073534602384816
aF0.6112263432734563
aF4.481442934711489e-05
aa(lp303
F-0.10165233425850413
aF0.04430846388283822
aF-0.09120415975947435
aF-1.6485005410740499
aF-0.005858410698305669
aF0.6118550499355783
aF4.4688410138068306e-05
aa(lp304
F-0.10013700851401303
aF0.044318447305647934
aF-0.08973104677295228
aF-1.6503232324378871
aF-0.005641504888599586
aF0.6124740582058519
aF4.4563842736139174e-05
aa(lp305
F-0.09861094981913834
aF0.0443285351730197
aF-0.08824735309547224
aF-1.6521175640210837
aF-0.005422835422264094
aF0.6130833013602444
aF4.4440729582387514e-05
aa(lp306
F-0.09707429986613503
aF0.04433871447776959
aF-0.08675321692347587
aF-1.6538833171369274
aF-0.0052024210785001895
aF0.6136827134993075
aF4.431907295809798e-05
aa(lp307
F-0.09552720272412163
aF0.04434897227920732
aF-0.08524877883455219
aF-1.655620275643991
aF-0.004980281168108714
aF0.6142722295642625
aF4.419887499035848e-05
aa(lp308
F-0.09396980483589175
aF0.04435929570965929
aF-0.08373418178396101
aF-1.6573282260099673
aF-0.004756435534525109
aF0.6148517853531039
aF4.4080137657689756e-05
aa(lp309
F-0.09240225501320462
aF0.04436967198106345
aF-0.08220957109964926
aF-1.6590069573756228
aF-0.004530904554483568
aF0.615421317536709
aF4.396286279572096e-05
aa(lp310
F-0.09082470443052992
aF0.04438008839162965
aF-0.08067509447573504
aF-1.6606562616188245
aF-0.004303709138301937
aF0.615980763674944
aF4.384705210290705e-05
aa(lp311
F-0.08923730661722303
aF0.04439053233255939
aF-0.07913090196443583
aF-1.6622759334185924
aF-0.0040748707297790804
aF0.6165300622327534
aF4.3732707146283e-05
aa(lp312
F-0.08764021744810871
aF0.04440099129481836
aF-0.07757714596641851
aF-1.6638657703191266
aF-0.003844411305696828
aF0.6170691525962223
aF4.3619829367250695e-05
aa(lp313
F-0.08603359513245282
aF0.04441145287595502
aF-0.07601398121955105
aF-1.6654255727937637
aF-0.0036123533749190025
aF0.6175979750885984
aF4.3508420087392895e-05
aa(lp314
F-0.08441760020130312
aF0.0444219047869584
aF-0.0744415647860366
aF-1.666955144308807
aF-0.0033787199770804917
aF0.6181164709862627
aF4.339848051430954e-05
aa(lp315
F-0.0827923954931825
aF0.04443233485914786
aF-0.07286005603791335
aF-1.6684542913871838
aF-0.0031435346808597726
aF0.6186245825346364
aF4.329001174747161e-05
aa(lp316
F-0.08115814613811922
aF0.044442731051087585
aF-0.07126961664090467
aF-1.6699228236718744
aF-0.002906821581828783
aF0.6191222529640111
aF4.318301478408664e-05
aa(lp317
F-0.07951501954000126
aF0.0444530814555182
aF-0.06967041053660643
aF-1.6713605539890626
aF-0.002668605299874562
aF0.619609426505291
aF4.307749052497235e-05
aa(lp318
F-0.07786318535724321
aF0.044463374306298035
aF-0.06806260392299995
aF-1.6727672984109532
aF-0.0024289109761875803
aF0.6200860484056328
aF4.297343978043048e-05
aa(lp319
F-0.0762028154817568
aF0.044473597985345954
aF-0.06644636523328137
aF-1.674142876318202
aF-0.002187764269812268
aF0.6205520649439719
aF4.287086327611785e-05
aa(lp320
F-0.07453408401621774
aF0.04448374102957794
aF-0.0648218651130002
aF-1.6754871104619051
aF-0.0019451913537558044
aF0.6210074234464228
aF4.2769761658907856e-05
aa(lp321
F-0.07285716724962404
aF0.0444937921378293
aF-0.0631892763955018
aF-1.6767998270250926
aF-0.0017012189106518415
aF0.6214520723015385
aF4.2670135502737757e-05
aa(lp322
F-0.07117224363114297
aF0.044503740177754256
aF-0.06154877407567106
aF-1.6780808556836706
aF-0.0014558741279764387
aF0.6218859609754183
aF4.2571985314435256e-05
aa(lp323
F-0.069479493742246
aF0.044513574192694506
aF-0.05990053528197631
aF-1.6793300296667582
aF-0.0012091846928141302
aF0.6223090400266498
aF4.247531153951948e-05
aa(lp324
F-0.06777910026713378
aF0.04452328340850836
aF-0.05824473924681523
aF-1.6805471858163599
aF-0.0009611787861726983
aF0.6227212611210731
aF4.238011456797085e-05
aa(lp325
F-0.06607124796145485
aF0.04453285724035208
aF-0.056581567275166576
aF-1.6817321646463235
aF-0.00071188507684589
aF0.6231225770463538
aF4.228639473996353e-05
aa(lp326
F-0.06435612361932472
aF0.044542285299404495
aF-0.05491120271155383
aF-1.682884810400522
aF-0.0004613327148239979
aF0.6235129417263517
aF4.219415235155541e-05
aa(lp327
F-0.06263391603865417
aF0.04455155739952666
aF-0.05323383090532955
aF-1.6840049711102083
aF-0.00020955132425293487
aF0.6238923102352733
aF4.2103387660329896e-05
aa(lp328
F-0.060904815984797765
aF0.044560663563847525
aF-0.05154963917429127
aF-1.6850924986504836
aF4.3429004056874676e-05
aF0.6242606388115938
aF4.201410089098306e-05
aa(lp329
F-0.05916901615253644
aF0.04456959403126727
aF-0.04985881676664246
aF-1.686147248795828
aF0.0002975777205697283
aF0.6246178848717384
aF4.192629224085221e-05
aa(lp330
F-0.05742671112641017
aF0.04457833926286931
aF-0.04816155482131431
aF-1.687169081274635
aF0.0005528638254092323
aF0.6249640070235076
aF4.1839961885377545e-05
aa(lp331
F-0.055678097339419315
aF0.044586889948232476
aF-0.0464580463266668
aF-1.688157859822697
aF0.0008092558771847162
aF0.6252989650792357
aF4.175510998349436e-05
aa(lp332
F-0.05392337303011558
aF0.04459523701163475
aF-0.04474848607758963
aF-1.6891134522355875
aF0.0010667220022552268
aF0.6256227200686698
aF4.1671736682947285e-05
aa(lp333
F-0.052162738198106226
aF0.04460337161813975
aF-0.043033070631026404
aF-1.6900357304198879
aF0.0013252299044260842
aF0.625935234251558
aF4.158984212552351e-05
aa(lp334
F-0.05039639455799733
aF0.044611285179557814
aF-0.0413119982599476
aF-1.6909245704432019
aF0.0015847468750722652
aF0.6262364711299322
aF4.1509426452197386e-05
aa(lp335
F-0.04862454549180456
aF0.044618969360272764
aF-0.03958546890580054
aF-1.691779852582912
aF0.0018452398036821005
aF0.6265263954600777
aF4.1430489808182296e-05
aa(lp336
F-0.04684739599986228
aF0.04462641608292648
aF-0.03785368412946681
aF-1.6926014613736209
aF0.002106675188814051
aF0.6268049732641745
aF4.135303234788367e-05
aa(lp337
F-0.045065152650264256
aF0.044633617533952785
aF-0.03611684706076016
aF-1.6933892856532318
aF0.002369019149458568
aF0.627072171841601
aF4.127705423974832e-05
aa(lp338
F-0.04327802352687141
aF0.044640566168952664
aF-0.03437516234650004
aF-1.694143218607616
aF0.002632237436796331
aF0.6273279597798883
aF4.1202555671003944e-05
aa(lp339
F-0.04148621817592484
aF0.044647254717902735
aF-0.03262883609719852
aF-1.694863157813822
aF0.0028962954463433925
aF0.6275723069653146
aF4.1129536852285424e-05
aa(lp340
F-0.039689947551304096
aF0.04465367619018962
aF-0.030878075832400594
aF-1.6955490052817774
aF0.0031611582304730814
aF0.6278051845931293
aF4.105799802214028e-05
aa(lp341
F-0.03788942395847339
aF0.044659823879462164
aF-0.029123090424719812
aF-1.6962006674944388
aF0.003426790511303781
aF0.628026565177396
aF4.0987939451410584e-05
aa(lp342
F-0.03608486099716047
aF0.044665691368294465
aF-0.027364090042613917
aF-1.696818055446347
aF0.0036931566939410127
aF0.6282364225604455
aF4.091936144748537e-05
aa(lp343
F-0.03427647350281486
aF0.04467127253265254
aF-0.025601286091946802
aF-1.6974010846805434
aF0.0039602208800616
aF0.6284347319219286
aF4.085226435841871e-05
aa(lp344
F-0.032464477486894655
aF0.04467656154615761
aF-0.02383489115638552
aF-1.6979496753238075
aF0.0042279468818269906
aF0.6286214697874589
aF4.078664857690959e-05
aa(lp345
F-0.030649090076032653
aF0.04468155288413958
aF-0.022065118936682906
aF-1.698463752120175
aF0.0044962982361122054
aF0.6287966140368398
aF4.0722514544138594e-05
aa(lp346
F-0.02883052945013488
aF0.04468624132747418
aF-0.020292184188898433
aF-1.698943244462702
aF0.004765238219036266
aF0.6289601439118627
aF4.06598627534569e-05
aa(lp347
F-0.02700901477946618
aF0.04469062196619773
aF-0.01851630266161162
aF-1.6993880864234343
aF0.005034729860779345
aF0.6291120400236724
aF4.059869375392364e-05
aa(lp348
F-0.025184766160779533
aF0.04469469020289391
aF-0.016737691032184338
aF-1.6997982167815544
aF0.0053047359606713035
aF0.6292522843596902
aF4.0539008153688444e-05
aa(lp349
F-0.023358004552547263
aF0.04469844175584668
aF-0.014956566842129732
aF-1.700173579049668
aF0.005575219102535793
aF0.6293808602900879
aF4.0480806623213256e-05
aa(lp350
F-0.021528951709354066
aF0.04470187266195486
aF-0.01317314843164738
aF-1.700514121498204
aF0.005846141670273518
aF0.6294977525738067
aF4.0424089898332225e-05
aa(lp351
F-0.01969783011551318
aF0.04470497927940289
aF-0.011387654873385568
aF-1.7008197971778996
aF0.006117465863667813
aF0.6296029473641133
aF4.0368858783144265e-05
aa(lp352
F-0.017864862917968415
aF0.04470775829008382
aF-0.009600305905493078
aF-1.7010905639403426
aF0.0063891537143952425
aF0.6296964322136888
aF4.0315114152735756e-05
aa(lp353
F-0.01603027385854617
aF0.04471020670177025
aF-0.007811321864024166
aF-1.7013263844565498
aF0.006661167102223483
aF0.629778196079245
aF4.026285695573058e-05
aa(lp354
F-0.01419428711115929
aF0.04471232282409273
aF-0.006021052540759202
aF-1.7015272260877186
aF0.006933467771378401
aF0.629848229559408
aF4.020681115618234e-05
aa(lp355
F-0.012357127493441117
aF0.04471410289633901
aF-0.004229598523062278
aF-1.7016930618004222
aF0.007206017346029973
aF0.6299065244617812
aF4.0151919669275836e-05
aa(lp356
F-0.010519018800424013
aF0.04471554479085854
aF-0.002437169269299602
aF-1.7018238688483904
aF0.0074787775462631725
aF0.6299530739745869
aF4.009863211894463e-05
aa(lp357
F-0.008680186380570065
aF0.04471664685737948
aF-0.0006439854741586268
aF-1.7019196292972885
aF0.007751709822297099
aF0.629987872689761
aF4.004700113009778e-05
aa(lp358
F-0.006840855877572745
aF0.04471740873491724
aF0.0011496038063113555
aF-1.701980329944451
aF0.008024775534713693
aF0.6300109168478336
aF3.999183820031603e-05
aa(lp359
F-0.005001253309492345
aF0.04471782807339486
aF0.0029434941996166197
aF-1.7020059632203695
aF0.008297935989245372
aF0.630022203913631
aF3.9937982721618945e-05
aa(lp360
F-0.003161603417402842
aF0.0447179041077955
aF0.0047374761663178284
aF-1.7019965258854113
aF0.008571152651622555
aF0.6300217327384514
aF3.988592073224874e-05
aa(lp361
F-0.0013221320927398286
aF0.04471763748909509
aF0.0065312012317921275
aF-1.7019520193846422
aF0.008844386789489147
aF0.6300095038143294
aF3.9830492453695555e-05
aa(lp362
F0.0005169344790544349
aF0.04471702691792999
aF0.0083245646314297
aF-1.7018724508000946
aF0.009117599647100481
aF0.62998551885947
aF3.9776533164770254e-05
aa(lp363
F0.0023553715885647813
aF0.044716072656406945
aF0.01011735805499731
aF-1.7017578315469744
aF0.009390752678046527
aF0.6299497809769905
aF3.972457930953348e-05
aa(lp364
F0.004192953590811185
aF0.044714776369579455
aF0.011909234607313461
aF-1.7016081777154057
aF0.009663807189337601
aF0.629902294908238
aF3.96695177937327e-05
aa(lp365
F0.006029454749972806
aF0.04471313782251457
aF0.013700088197424784
aF-1.7014235110143356
aF0.009936724514094945
aF0.6298430666214903
aF3.961611919865068e-05
aa(lp366
F0.007864651096780492
aF0.0447111592216714
aF0.015489582945722814
aF-1.7012038573292814
aF0.010209466243502448
aF0.6297721036993461
aF3.955964788928368e-05
aa(lp367
F0.009698317682950205
aF0.04470884099246175
aF0.017277616987944895
aF-1.7009492480962949
aF0.010481993875414191
aF0.6296894149313632
aF3.950502282580429e-05
aa(lp368
F0.011530231250423717
aF0.04470618509389939
aF0.019063986564706387
aF-1.700659719040453
aF0.010754269181290906
aF0.6295950104772896
aF3.945291161223081e-05
aa(lp369
F0.013360167936538608
aF0.04470319487224949
aF0.02084834887166417
aF-1.7003353104994647
aF0.011026253867353005
aF0.6294889021212352
aF3.939827728575442e-05
aa(lp370
F0.015187904109190778
aF0.04469987185394256
aF0.022630596746034883
aF-1.699976068357788
aF0.011297909745228034
aF0.6293711028653346
aF3.93457799049269e-05
aa(lp371
F0.017013218216725714
aF0.04469621986826062
aF0.02441040372064526
aF-1.6995820426307755
aF0.011569198963755647
aF0.6292416273000143
aF3.929095222446949e-05
aa(lp372
F0.01883588811500651
aF0.044692241103965503
aF0.026187665555395263
aF-1.699153288767122
aF0.011840083666273354
aF0.6291004912123607
aF3.923852397703608e-05
aa(lp373
F0.020655693704903805
aF0.044687940025272925
aF0.027962060635137603
aF-1.6986898663008292
aF0.01211052634035728
aF0.628947711961793
aF3.918415939914875e-05
aa(lp374
F0.022472414510313482
aF0.04468332040145367
aF0.029733355171029065
aF-1.698191839983941
aF0.01238048949733407
aF0.6287833083318708
aF3.912716159660748e-05
aa(lp375
F0.02428583192673504
aF0.04467838521220667
aF0.03150146652063673
aF-1.6976592795138705
aF0.012649936018810632
aF0.6286073002483252
aF3.907302715409734e-05
aa(lp376
F0.026095728680187148
aF0.044673139850023864
aF0.03326608236017128
aF-1.6970922585084087
aF0.012918829040959482
aF0.6284197091728123
aF3.901767417229976e-05
aa(lp377
F0.027901887108800386
aF0.04466758907595446
aF0.03502697286825964
aF-1.696490855690095
aF0.013187131739052355
aF0.6282205579677396
aF3.896045232420863e-05
aa(lp378
F0.029704091541948762
aF0.04466173686666026
aF0.03678405964069554
aF-1.6958551546380296
aF0.01345480769319246
aF0.628009870614342
aF3.890693771654905e-05
aa(lp379
F0.031502127807723795
aF0.04465558950795168
aF0.03853704459998919
aF-1.6951852427690883
aF0.013721820780451227
aF0.6277876725914125
aF3.885349931116089e-05
aa(lp380
F0.03329578152421563
aF0.0446491527371019
aF0.040285705583580717
aF-1.694481212460179
aF0.013988134959132852
aF0.6275539907468981
aF3.879967201046849e-05
aa(lp381
F0.035084840467494265
aF0.04464243238739269
aF0.042029841505219316
aF-1.6937431606753968
aF0.014253714618056083
aF0.6273088532546032
aF3.8745787161725426e-05
aa(lp382
F0.03686909388290588
aF0.044635434552042795
aF0.04376926153811925
aF-1.6929711888430377
aF0.014518524478529938
aF0.6270522895812979
aF3.8692573944184566e-05
aa(lp383
F0.038648332487566925
aF0.04462816685829262
aF0.04550365619874487
aF-1.692165402802085
aF0.014782529575888392
aF0.626784330648831
aF3.863691534613234e-05
aa(lp384
F0.04042234828206549
aF0.044620636412251696
aF0.04723292502769103
aF-1.6913259138306385
aF0.015045695258947502
aF0.6265050083781831
aF3.8587312224352555e-05
aa(lp385
F0.04219094397317882
aF0.044612903135861665
aF0.048956804461032746
aF-1.6904528602641562
aF0.015307987383444806
aF0.6262143495536837
aF3.8703495594570684e-05
aa(lp386
F0.043952799119348324
aF0.04460484778725398
aF0.05067651488059294
aF-1.6895465973707608
aF0.015569346399998558
aF0.6259124347454407
aF3.883285893162503e-05
aa(lp387
F0.04570917802097967
aF0.04459655137808479
aF0.052390477503547535
aF-1.6886069832402766
aF0.015829804103471398
aF0.6255992662463368
aF3.890437388100535e-05
aa(lp388
F0.0474599717527948
aF0.04458802489880715
aF0.054098491475529066
aF-1.6876341376001787
aF0.016089337320858352
aF0.6252748804562198
aF3.8902970343057635e-05
aa(lp389
F0.04920503557500922
aF0.04457927825410239
aF0.055800356267949505
aF-1.6866281897005313
aF0.016347919216618663
aF0.6249393161835619
aF3.881932523798393e-05
aa(lp390
F0.05094420296700236
aF0.0445703215482808
aF0.057495872142166636
aF-1.68558927322282
aF0.01660552081567713
aF0.6245926130679726
aF3.864770801851293e-05
aa(lp391
F0.05267593659628655
aF0.04456116159211922
aF0.05918612713305715
aF-1.6845172719418302
aF0.01686186797949471
aF0.6242347331942794
aF3.8739162396233176e-05
aa(lp392
F0.054400818138905904
aF0.04455179700832166
aF0.060869666838422036
aF-1.6834125829466833
aF0.017117109174507716
aF0.6238657881726638
aF3.87958543551708e-05
aa(lp393
F0.05611865251733388
aF0.044542248466000474
aF0.06254630522393564
aF-1.6822753648634514
aF0.017371212679806437
aF0.6234858218060609
aF3.885401631533113e-05
aa(lp394
F0.057829249158500566
aF0.044532525173969516
aF0.06421583600439022
aF-1.6811057698357899
aF0.017624147894738706
aF0.6230948788621522
aF3.891303684046082e-05
aa(lp395
F0.059532419432708025
aF0.04452263617816645
aF0.06587805237038323
aF-1.679903953685541
aF0.01787588467062208
aF0.6226930052935907
aF3.897203912788681e-05
aa(lp396
F0.06122797689249522
aF0.04451259059796364
aF0.06753275333163944
aF-1.6786700760949065
aF0.01812639334713362
aF0.6222802482444527
aF3.9030265362159835e-05
aa(lp397
F0.06291573733296998
aF0.04450239764425748
aF0.06917974499627497
aF-1.6774043005432824
aF0.018375644763228664
aF0.6218566560251392
aF3.908715600167834e-05
aa(lp398
F0.0645955187834377
aF0.04449206664130993
aF0.07081883989269251
aF-1.676106794229602
aF0.01862361025779959
aF0.6214222780887197
aF3.91423277779187e-05
aa(lp399
F0.06626714138458244
aF0.04448160628764156
aF0.07244998194220541
aF-1.6747777281543061
aF0.018870261667990357
aF0.6209771647710878
aF3.920102673381139e-05
aa(lp400
F0.06793042763903336
aF0.04447102728020432
aF0.07407288802068629
aF-1.6734172761760946
aF0.01911557132699986
aF0.6205213677246969
aF3.925851899933653e-05
aa(lp401
F0.06958520088717775
aF0.044460339597344696
aF0.07568735860885889
aF-1.6720256161211093
aF0.019359511878263378
aF0.6200549397263001
aF3.931365671231088e-05
aa(lp402
F0.07123128763224187
aF0.044449552409663674
aF0.07729334097365582
aF-1.6706029295243858
aF0.019602056622224
aF0.619577934397975
aF3.9371592077101044e-05
aa(lp403
F0.07286851701697468
aF0.0444386768074907
aF0.07889055808990705
aF-1.6691494006142769
aF0.01984317939942954
aF0.6190904066403097
aF3.9427524942277974e-05
aa(lp404
F0.07449671902154574
aF0.04442772238418321
aF0.08047894806728782
aF-1.6676652175665427
aF0.02008285437974839
aF0.6185924121782677
aF3.948607912021282e-05
aa(lp405
F0.07611572713197708
aF0.044416700502650536
aF0.08205823408918045
aF-1.6661505711907691
aF0.020321056400862323
aF0.6180840079990676
aF3.9542242947110904e-05
aa(lp406
F0.0777253758565474
aF0.04440562098042112
aF0.08362836032910244
aF-1.6646056561393452
aF0.020557760658874127
aF0.6175652518768264
aF3.96007328105235e-05
aa(lp407
F0.07932550318776432
aF0.044394494642507464
aF0.08518918378038899
aF-1.6630306697342794
aF0.020792943029784402
aF0.6170362025717344
aF3.966226800051993e-05
aa(lp408
F0.0809159484370938
aF0.04438333334358767
aF0.08674041434546646
aF-1.6614258121231391
aF0.02102657974976089
aF0.6164969200855823
aF3.972093993635571e-05
aa(lp409
F0.08249655285983293
aF0.04437214717692774
aF0.08828200662109487
aF-1.659791287204802
aF0.021258647549986746
aF0.6159474651473593
aF3.9781668947289466e-05
aa(lp410
F0.08406716156609849
aF0.04436094798766572
aF0.08981369208364902
aF-1.6581273011756004
aF0.021489123878022234
aF0.6153878996877017
aF3.9839214986883245e-05
aa(lp411
F0.08562762069749605
aF0.0443497460267035
aF0.0913354316372559
aF-1.6564340637730783
aF0.021717986543257628
aF0.6148182863245075
aF3.989859084874614e-05
aa(lp412
F0.08717777997723168
aF0.044338552550756
aF0.09284709186200699
aF-1.6547117870697714
aF0.021945214045805416
aF0.6142386885950782
aF3.99604273185788e-05
aa(lp413
F0.08871749044371892
aF0.044327379754945204
aF0.09434839666913915
aF-1.6529606856572059
aF0.022170785244685284
aF0.6136491711992346
aF4.0018823186545685e-05
aa(lp414
F0.09024660514031697
aF0.0443162380973538
aF0.09583931437607775
aF-1.6511809775449617
aF0.02239467950045164
aF0.6130497994690869
aF4.0078860174425786e-05
aa(lp415
F0.09176498087279132
aF0.04430513901215836
aF0.09731971741676519
aF-1.649372882890622
aF0.022616876886546372
aF0.6124406396164643
aF4.014111777700721e-05
aa(lp416
F0.09327247577159128
aF0.04429409482136464
aF0.0987893375900916
aF-1.6475366241865925
aF0.022837357834260198
aF0.611821758969472
aF4.0199671461444855e-05
aa(lp417
F0.09476894998995665
aF0.04428311612048173
aF0.10024815126673513
aF-1.6456724271465648
aF0.023056103275748367
aF0.6111932254315443
aF4.025969425146638e-05
aa(lp418
F0.09625426744008271
aF0.044272214457942057
aF0.10169603695847919
aF-1.6437805194437833
aF0.023273094850328597
aF0.6105551077458365
aF4.03217225682613e-05
aa(lp419
F0.09772829334566988
aF0.044261402215265776
aF0.10313273570548631
aF-1.6418611309047786
aF0.023488314549706808
aF0.6099074757231641
aF4.0379869372690395e-05
aa(lp420
F0.09919089495751515
aF0.04425069007743069
aF0.10455823055569267
aF-1.6399144943750383
aF0.023701744862244287
aF0.6092503996960733
aF4.043933893203579e-05
aa(lp421
F0.10064194325428545
aF0.04424008964750693
aF0.10597240602331812
aF-1.6379408444801307
aF0.023913368972686498
aF0.6085839507972981
aF4.050062207734724e-05
aa(lp422
F0.10208131040699187
aF0.04422961263725054
aF0.10737513853040387
aF-1.6359404179905792
aF0.024123170411731794
aF0.6079082009259646
aF4.056377870729884e-05
aa(lp423
F0.10350887090036393
aF0.04421927144003085
aF0.10876617721534146
aF-1.6339134536368427
aF0.024331133198107376
aF0.6072232229920806
aF4.0622782762075215e-05
aa(lp424
F0.10492450134545017
aF0.044209076745434395
aF0.1101455158010552
aF-1.6318601929247247
aF0.024537241853667992
aF0.6065290903515049
aF4.0682970510053176e-05
aa(lp425
F0.10632808206637248
aF0.04419904012769699
aF0.1115130473463328
aF-1.629780878899951
aF0.024741481584163644
aF0.605825877108632
aF4.074479993434709e-05
aa(lp426
F0.10771949452823952
aF0.04418917323590745
aF0.11286865742038914
aF-1.6276757565170885
aF0.024943837925879644
aF0.6051136580746727
aF4.0808322529814745e-05
aa(lp427
F0.1090986223657269
aF0.04417948769495247
aF0.11421223282582425
aF-1.625545072626811
aF0.025144296888715313
aF0.6043925087530919
aF4.087354528361771e-05
aa(lp428
F0.11046535148252584
aF0.04416999508943471
aF0.11554366253530948
aF-1.623389075922792
aF0.02534284496759122
aF0.6036625053248392
aF4.0940470174642266e-05
aa(lp429
F0.11181957004893041
aF0.04416070695667383
aF0.11686283778079627
aF-1.6212080168848058
aF0.025539469139368515
aF0.6029237246337065
aF4.100909848271946e-05
aa(lp430
F0.11316116848739376
aF0.04415163478079747
aF0.1181696520495745
aF-1.6190021477220293
aF0.025734156857990208
aF0.6021762441718364
aF4.1079431255073235e-05
aa(lp431
F0.11449003945585232
aF0.04414278998705934
aF0.11946400106927708
aF-1.6167717223170006
aF0.02592689604923355
aF0.6014201420653874
aF4.115146935283499e-05
aa(lp432
F0.11580607782991859
aF0.04413418393629244
aF0.1207457827908039
aF-1.614516996170309
aF0.026117675105234335
aF0.6006554970603634
aF4.122521345169147e-05
aa(lp433
F0.1171091806840972
aF0.044125827919489345
aF0.12201489737017737
aF-1.612238226346047
aF0.026306482878810336
aF0.599882388508613
aF4.130066403758206e-05
aa(lp434
F0.11839924727207617
aF0.04411773315250942
aF0.12327124714947497
aF-1.6099356714180493
aF0.026493308677596625
aF0.5991008963540081
aF4.137782140192812e-05
aa(lp435
F0.11967617900613382
aF0.04410991077091475
aF0.12451473663688938
aF-1.6076095914169424
aF0.026678142258003877
aF0.5983111011188048
aF4.145668563688957e-05
aa(lp436
F0.12093987943570139
aF0.04410237182493527
aF0.1257452724859566
aF-1.6052602477780262
aF0.026860973819010515
aF0.5975130838901956
aF4.153725663070435e-05
aa(lp437
F0.12219025422512046
aF0.044095127274564515
aF0.1269627634739916
aF-1.6028879032900092
aF0.02704179399579939
aF0.5967069263070567
aF4.1619534063119835e-05
aa(lp438
F0.12342721113063483
aF0.04408818798478605
aF0.12816712047977039
aF-1.6004928220446137
aF0.02722059385324965
aF0.5958927105468966
aF4.17035174009213e-05
aa(lp439
F0.12465065997665604
aF0.04408156472093153
aF0.12935825646049762
aF-1.5980752693870726
aF0.027397364879294304
aF0.5950705193130119
aF4.178920589355839e-05
aa(lp440
F0.12586051263134196
aF0.04407526814417025
aF0.1305360864280987
aF-1.595635511867531
aF0.02757209897815381
aF0.594240435821853
aF4.18765985688736e-05
aa(lp441
F0.12705668298152709
aF0.044069308807130454
aF0.131700527424875
aF-1.5931738171933707
aF0.02774478846345592
aF0.5934025437906068
aF4.196569422893514e-05
aa(lp442
F0.12823908690704366
aF0.04406369714965205
aF0.13285149849856057
aF-1.5906904541824687
aF0.027915426051251836
aF0.5925569274249978
aF4.205649144597618e-05
aa(lp443
F0.12940764225447196
aF0.044058443494670696
aF0.13398892067681836
aF-1.5881856927174052
aF0.02808400485293858
aF0.5917036714073148
aF4.214898855844269e-05
aa(lp444
F0.13056226881035787
aF0.04405355804423249
aF0.13511271694121413
aF-1.5856598037006306
aF0.028250518368097225
aF0.5908428608846634
aF4.2243183667153435e-05
aa(lp445
F0.1317028882739355
aF0.04404905087563867
aF0.13622281220070495
aF-1.583113059010603
aF0.028414960477256543
aF0.5899745814574495
aF4.2339074631572226e-05
aa(lp446
F0.1328294242293925
aF0.044044931937719446
aF0.1373191332646797
aF-1.5805457314589049
aF0.028577325434591364
aF0.5890989191680969
aF4.2436659066195985e-05
aa(lp447
F0.13394180211771467
aF0.04404121104723618
aF0.13840160881558786
aF-1.5779580947483467
aF0.02873760786056476
aF0.5882159604900002
aF4.253593433705935e-05
aa(lp448
F0.1350399492081467
aF0.04403789788541044
aF0.1394701693811928
aF-1.5753504234320659
aF0.028895802734522923
aF0.5873257923167179
aF4.2636897558358295e-05
aa(lp449
F0.13612379456930473
aF0.044035001994579
aF0.14052474730648518
aF-1.572722992873624
aF0.02905190538725143
aF0.586428501951404
aF4.2739545589194176e-05
aa(lp450
F0.13719326903997658
aF0.04403253277497306
aF0.14156527672529123
aF-1.5700760792081094
aF0.029205911493501324
aF0.5855241770964842
aF4.284387503043884e-05
aa(lp451
F0.1382483051996441
aF0.044030499481620355
aF0.14259169353161086
aF-1.5674099593042488
aF0.029357817064493218
aF0.5846129058435752
aF4.294988222172375e-05
aa(lp452
F0.13928883733876238
aF0.0440289112213684
aF0.1436039353507188
aF-1.5647249107275276
aF0.029507618440407446
aF0.5836947766636494
aF4.305756323855249e-05
aa(lp453
F0.14031480142882952
aF0.044027776950027096
aF0.14460194151006284
aF-1.5620212117043255
aF0.029655312282867937
aF0.5827698783974468
aF4.3166913889539545e-05
aa(lp454
F0.14132613509227995
aF0.044027105469628874
aF0.14558565300999107
aF-1.5592991410870627
aF0.029800895567427363
aF0.5818383002461323
aF4.327792971377473e-05
aa(lp455
F0.14232277757223388
aF0.04402690542580429
aF0.14655501249434075
aF-1.55655897832036
aF0.029944365576060807
aF0.5809001317622028
aF4.339060597831583e-05
aa(lp456
F0.14330466970213482
aF0.04402718530527108
aF0.14750996422091975
aF-1.5538010034082108
aF0.030085719889674956
aF0.5799554628406406
aF4.3504937675808454e-05
aa(lp457
F0.1442717538753063
aF0.04402795343343454
aF0.1484504540319114
aF-1.5510254968821622
aF0.030224956380639597
aF0.5790043837103152
aF4.36209195222355e-05
aa(lp458
F0.14522397401445838
aF0.0440292179720968
aF0.14937642932423273
aF-1.548232739770502
aF0.030362073205347954
aF0.5780469849256326
aF4.3738545954795275e-05
aa(lp459
F0.14616127554117384
aF0.044030986917272995
aF0.15028783901987547
aF-1.5454230135684497
aF0.030497068796812125
aF0.5770833573584323
aF4.385781112991004e-05
aa(lp460
F0.14708360534540302
aF0.04403326809711153
aF0.15118463353625833
aF-1.5425966002093447
aF0.030629941857299652
aF0.5761135921901301
aF4.397870892136435e-05
aa(lp461
F0.14799091175499615
aF0.0440360691699164
aF0.15206676475661848
aF-1.5397537820368288
aF0.03076069135101705
aF0.5751377809041067
aF4.41012329185745e-05
aa(lp462
F0.14888314450530066
aF0.04403939762226883
aF0.15293418600046943
aF-1.5368948417780133
aF0.030889316496845797
aF0.5741560152783405
aF4.4225376424987776e-05
aa(lp463
F0.1497602547088506
aF0.04404326076724572
aF0.15378685199415187
aF-1.534020062517628
aF0.03101581676113615
aF0.5731683873782842
aF4.4351132456613734e-05
aa(lp464
F0.15062219482517475
aF0.04404766574273239
aF0.1546247188415031
aF-1.531129727673142
aF0.03114019185056379
aF0.5721749895499825
aF4.447849374068494e-05
aa(lp465
F0.1514689186307488
aF0.0440526195098268
aF0.15544774399467018
aF-1.528224120970849
aF0.03126244170505421
aF0.571175914413429
aF4.460745271444991e-05
aa(lp466
F0.15230038118911676
aF0.044058128851332826
aF0.1562558862250912
aF-1.525303526422908
aF0.031382566490779404
aF0.5701712548561624
aF4.47380015240951e-05
aa(lp467
F0.1531165388212061
aF0.0440642003703398
aF0.15704910559466817
aF-1.5223682283053308
aF0.03150056659323123
aF0.5691611040270975
aF4.48701320237984e-05
aa(lp468
F0.15391734907585958
aF0.04407084048888546
aF0.15782736342715448
aF-1.5194185111369052
aF0.031616442610375634
aF0.5681455553305899
aF4.5003835774912496e-05
aa(lp469
F0.1547027707006074
aF0.04407805544669984
aF0.1585906222797793
aF-1.516454659659044
aF0.031730195345891644
aF0.5671247024207318
aF4.513910404527734e-05
aa(lp470
F0.1554727636127015
aF0.04408585130002716
aF0.15933884591513026
aF-1.5134769588165495
aF0.03184182580249888
aF0.5660986391958767
aF4.5275927808661974e-05
aa(lp471
F0.1562272888704334
aF0.04409423392052305
aF0.16007199927331522
aF-1.510485693739281
aF0.031951335175376974
aF0.565067459793389
aF4.5414297744335625e-05
aa(lp472
F0.15696630864475714
aF0.04410320899422449
aF0.16079004844442363
aF-1.5074811497247123
aF0.03205872484568041
aF0.5640312585846172
aF4.55542042367657e-05
aa(lp473
F0.15768978619123655
aF0.04411278202058935
aF0.16149296064130644
aF-1.5044636122213702
aF0.03216399637415164
aF0.562990130170086
aF4.5695637375443984e-05
aa(lp474
F0.15839768582233746
aF0.04412295831160326
aF0.1621807041726939
aF-1.5014333668131365
aF0.03226715149483551
aF0.5619441693749052
aF4.583858695483943e-05
aa(lp475
F0.15908997288008295
aF0.044133742990950686
aF0.16285324841666887
aF-1.4983906992044045
aF0.03236819210889767
aF0.560893471244392
aF4.598304247447599e-05
aa(lp476
F0.15976661370909054
aF0.044145140993247754
aF0.1635105637945138
aF-1.4953358952060727
aF0.03246712027854953
aF0.5598381310399023
aF4.6128993139136145e-05
aa(lp477
F0.16042757563000865
aF0.04415715706333406
aF0.1641526217449477
aF-1.4922692407223643
aF0.03256393822108194
aF0.5587782442348682
aF4.627642785918802e-05
aa(lp478
F0.1610728269133697
aF0.044169795755620724
aF0.16477939469876968
aF-1.4891910217384565
aF0.032658648303009914
aF0.5577139065110379
aF4.642533525103584e-05
aa(lp479
F0.161702336753876
aF0.04418306143349208
aF0.16539085605392465
aF-1.4861015243089053
aF0.03275125303433036
aF0.5566452137549139
aF4.657570363769214e-05
aa(lp480
F0.16231607524513492
aF0.04419695826875853
aF0.16598698015100632
aF-1.483001034546851
aF0.03284175506289451
aF0.5555722620543853
aF4.67275210494711e-05
aa(lp481
F0.16291401335485808
aF0.04421149024115765
aF0.16656774224921186
aF-1.4798898386139887
aF0.032930157168896856
aF0.5544951476955504
aF4.6880775224801364e-05
aa(lp482
F0.16349612290054
aF0.044226661137901385
aF0.16713311850276227
aF-1.4767682227112877
aF0.03301646225948201
aF0.5534139671597261
aF4.703545361115785e-05
aa(lp483
F0.16406237652562985
aF0.0442424745532665
aF0.16768308593780185
aF-1.4736364730704448
aF0.033100673363470855
aF0.5523288171206381
aF4.7191543366111114e-05
aa(lp484
F0.16461274767621076
aF0.04425893388822602
aF0.16821762242978944
aF-1.4704948759460552
aF0.03318279362620725
aF0.551239794441789
aF4.7349031358491857e-05
aa(lp485
F0.1651472105781994
aF0.044276042350119144
aF0.16873670668139398
aF-1.4673437176084834
aF0.03326282630452625
aF0.5501469961739998
aF4.750790416967147e-05
aa(lp486
F0.16566574021507896
aF0.04429380295235725
aF0.16924031820090604
aF-1.4641832843374187
aF0.03334077476184489
aF0.5490505195531182
aF4.766814809495567e-05
aa(lp487
F0.16616831230617768
aF0.04431221851416371
aF0.16972843728117662
aF-1.4610138624160989
aF0.0334166424633763
aF0.5479504619978927
aF4.782974914508962e-05
aa(lp488
F0.16665490328550478
aF0.044331291660345155
aF0.17020104497909422
aF-1.4578357381261833
aF0.033490432971467796
aF0.5468469211080036
aF4.7992693047874614e-05
aa(lp489
F0.16712549028115523
aF0.04435102482109205
aF0.17065812309561026
aF-1.454649197743259
aF0.03356214994106362
aF0.5457399946622499
aF4.815696524989365e-05
aa(lp490
F0.1675800510952944
aF0.04437142023180632
aF0.17109965415632314
aF-1.451454527532964
aF0.033631797115292704
aF0.5446297806168838
aF4.832255091834435e-05
aa(lp491
F0.16801856418473296
aF0.04439247993295394
aF0.17152562139262995
aF-1.4482520137477075
aF0.03369937832118182
aF0.5435163771040908
aF4.8489434942978995e-05
aa(lp492
F0.16844100864210237
aF0.044414205769940485
aF0.17193600872345532
aF-1.445041942623971
aF0.03376489746549442
aF0.542399882430608
aF4.865760193814828e-05
aa(lp493
F0.16884736417764062
aF0.04443659939300749
aF0.17233080073756588
aF-1.4418246003801718
aF0.0338283585306953
aF0.5412803950764771
aF4.8827036244948705e-05
aa(lp494
F0.16923761110159774
aF0.04445966225714783
aF0.17270998267647833
aF-1.438600273215073
aF0.033889765571041106
aF0.5401580136939258
aF4.8997721933471295e-05
aa(lp495
F0.16961173030726984
aF0.04448339562203825
aF0.17307354041796946
aF-1.4353692473067179
aF0.03394912270879672
aF0.5390328371063736
aF4.916964280515061e-05
aa(lp496
F0.1699697032546708
aF0.044507800551987
aF0.17342146046019521
aF-1.4321318088118735
aF0.03400643413057744
aF0.5379049643075552
aF4.9342782395210864e-05
aa(lp497
F0.17031151195484967
aF0.04453287791589518
aF0.17375372990642618
aF-1.4288882438659654
aF0.034061704083816674
aF0.5367744944607572
aF4.95171239752096e-05
aa(lp498
F0.1706371389548617
aF0.044558628387229786
aF0.17407033645040607
aF-1.4256388385834824
aF0.034114936873359
aF0.5356415268981625
aF4.969265055567587e-05
aa(lp499
F0.17094656732340127
aF0.0445850524440071
aF0.17437126836233996
aF-1.4223838790588361
aF0.03416613685817822
aF0.5345061611202965
aF4.986934488884148e-05
aa(lp500
F0.17123978063710357
aF0.04461215036878467
aF0.17465651447551817
aF-1.419123651367654
aF0.03421530844822003
aF0.5333684967955704
aF5.0047189471463235e-05
aa(lp501
F0.1715167629675226
aF0.04463992224866059
aF0.17492606417358167
aF-1.4158584415684883
aF0.034262456101368834
aF0.5322286337599149
aF5.022616654773503e-05
aa(lp502
F0.17177749886879215
aF0.04466836797527855
aF0.1751799073784347
aF-1.4125885357049228
aF0.03430758432053826
aF0.5310866720164995
aF5.040625811228822e-05
aa(lp503
F0.17202197336597652
aF0.04469748724483736
aF0.17541803453880966
aF-1.4093142198080566
aF0.03435069765088475
aF0.5299427117355319
aF5.058744591327662e-05
aa(lp504
F0.17225017194411735
aF0.044727279558103794
aF0.17564043661948944
aF-1.4060357798993477
aF0.03439180067714369
aF0.5287968532541303
aF5.076971145554717e-05
aa(lp505
F0.17246208053798265
aF0.04475774422042735
aF0.1758471050911917
aF-1.4027535019937967
aF0.03443089802108732
aF0.5276491970762652
aF5.095303600389168e-05
aa(lp506
F0.17265768552252395
aF0.044788880341755995
aF0.17603803192111975
aF-1.3994676721034516
aF0.034467994339103886
aF0.5264998438727627
aF5.11374005863801e-05
aa(lp507
F0.17283697370404735
aF0.04482068683665187
aF0.17621320956418407
aF-1.396178576241214
aF0.034503094319897114
aF0.5253488944813643
aF5.1322785997772484e-05
aa(lp508
F0.17299993231210387
aF0.044853162424305884
aF0.17637263095489888
aF-1.392886500424928
aF0.03453620268230542
aF0.5241964499068378
aF5.150917280302424e-05
aa(lp509
F0.1731465489921043
aF0.04488630562855039
aF0.17651628949995826
aF-1.3895917306817325
aF0.034567324173239926
aF0.523042611321132
aF5.169654134094768e-05
aa(lp510
F0.17327681179866392
aF0.04492011477786905
aF0.1766441790714923
aF-1.386294553052657
aF0.03459646356574046
aF0.521887480063571
aF5.188487172782299e-05
aa(lp511
F0.17339070918968144
aF0.04495458800540344
aF0.17675629400100773
aF-1.382995253597442
aF0.034623625657148764
aF0.5207311576410807
aF5.207414386102868e-05
aa(lp512
F0.17348823002115754
aF0.04498972324895532
aF0.17685262907401797
aF-1.3796941183995635
aF0.034648815267397895
aF0.5195737457284411
aF5.226433742280444e-05
aa(lp513
F0.17356936354275682
aF0.04502551825098433
aF0.17693317952536428
aF-1.3763914335714438
aF0.03467203723741704
aF0.51841534616856
aF5.2455431884093414e-05
aa(lp514
F0.1736340993941181
aF0.04506197055860049
aF0.17699794103523087
aF-1.373087485259826
aF0.03469329642765069
aF0.5172560609727606
aF5.264740650845084e-05
aa(lp515
F0.17368242760191688
aF0.04509907752355124
aF0.1770469097258565
aF-1.369782559651296
aF0.03471259771669133
aF0.5160959923210765
aF5.284024035601963e-05
aa(lp516
F0.17371433857768387
aF0.04513683630220228
aF0.1770800821589445
aF-1.3664769429779284
aF0.034729946000024554
aF0.5149352425625497
aF5.303391228757662e-05
aa(lp517
F0.17372982311638382
aF0.045175243855512574
aF0.17709745533377433
aF-1.3631709215230396
aF0.034745346188885785
aF0.5137739142155227
aF5.322840096868019e-05
aa(lp518
F0.17372887239575788
aF0.04521429694900285
aF0.17709902668601907
aF-1.3598647816270268
aF0.034758803209227425
aF0.5126121099679204
aF5.3423684874128716e-05
aa(lp519
F0.17371147797643302
aF0.045253992152717644
aF0.17708479408729433
aF-1.3565588096932717
aF0.03477032200079552
aF0.5114499326775154
aF5.3619742294386076e-05
aa(lp520
F0.17367763180280196
aF0.04529432584118055
aF0.1770547558454919
aF-1.3532532921940903
aF0.03477990751631497
aF0.5102874853721678
aF5.381655134768405e-05
aa(lp521
F0.17362732620467633
aF0.045335294193343534
aF0.17700891070571861
aF-1.349948515676709
aF0.034787564720782024
aF0.5091248712500371
aF5.401408998515447e-05
aa(lp522
F0.17356055389971564
aF0.04537689319253063
aF0.17694725785182622
aF-1.3466447667692443
aF0.03479329859086319
aF0.5079621936797567
aF5.421233598775857e-05
aa(lp523
F0.1734773079966353
aF0.045419118626375335
aF0.17686979690871665
aF-1.343342332186667
aF0.03479711411439939
aF0.5067995562005654
aF5.4411266967854824e-05
aa(lp524
F0.1733775819991978
aF0.045461966086752285
aF0.17677652794539062
aF-1.3400414987367326
aF0.034799016290014605
aF0.5056370625223898
aF5.4610860373069725e-05
aa(lp525
F0.17326136981098875
aF0.045505430969703727
aF0.17666745147871354
aF-1.3367425533258526
aF0.034799010126827803
aF0.5044748165258699
aF5.481109349066909e-05
aa(lp526
F0.1731286657409797
aF0.0455495084753613
aF0.1765425684778936
aF-1.3334457829648905
aF0.034797100644267054
aF0.503312922262322
aF5.5011943452054706e-05
aa(lp527
F0.1729794645098798
aF0.04559419360786372
aF0.17640188036967072
aF-1.3301514747748595
aF0.03479329287198474
aF0.502151483953633
aF5.521338723731772e-05
aa(lp528
F0.17281376125727801
aF0.04563948117527089
aF0.17624538904421666
aF-1.326859915992501
aF0.03478759184987281
aF0.5009906059920769
aF5.541540167983328e-05
aa(lp529
F0.17263155154957757
aF0.0456853657894755
aF0.17607309686174555
aF-1.3235713939757237
aF0.03478000262817698
aF0.49983039294005044
aF5.561796347088996e-05
aa(lp530
F0.1724328313887243
aF0.04573184186611265
aF0.1758850066598345
aF-1.3202861962088823
aF0.034770530267708745
aF0.4986709495297177
aF5.582104916435111e-05
aa(lp531
F0.17221759722172975
aF0.04577890362446856
aF0.1756811217614534
aF-1.317004610307874
aF0.03475917984015423
aF0.4975123806625591
aF5.602463518134744e-05
aa(lp532
F0.17198584595099015
aF0.04582654508738934
aF0.17546144598370322
aF-1.313726924025032
aF0.03474595642847865
aF0.49635479140881683
aF5.622869781499657e-05
aa(lp533
F0.17173757494540234
aF0.04587476008119085
aF0.17522598364726139
aF-1.310453425253794
aF0.03473086512742534
aF0.4951982870068306
aF5.643321323514769e-05
aa(lp534
F0.1714727820522766
aF0.04592354223557092
aF0.17497473958653273
aF-1.3071844020331265
aF0.034713911044108293
aF0.4940429728622563
aF5.6638157493150386e-05
aa(lp535
F0.1711914656100468
aF0.04597288498352518
aF0.1747077191605045
aF-1.30392014255168
aF0.03469509929869698
aF0.4928889545471609
aF5.684350652664364e-05
aa(lp536
F0.17089362446177817
aF0.04602278156126769
aF0.17442492826430345
aF-1.3006609351516567
aF0.03467443502519243
aF0.491736337798987
aF5.7049236164364596e-05
aa(lp537
F0.17057925796947163
aF0.04607322500815814
aF0.17412637334145223
aF-1.2974070683323664
aF0.03465192337229342
aF0.49058522851937914
aF5.725532213097343e-05
aa(lp538
F0.17024836602916466
aF0.04612420816663661
aF0.17381206139682345
aF-1.2941588307534513
aF0.034627569504351585
aF0.4894357327728661
aF5.7461740051893706e-05
aa(lp539
F0.16990094908682737
aF0.04617572368216804
aF0.17348200001028757
aF-1.2909165112377556
aF0.03460137860241437
aF0.4882879567853916
aF5.7668465458164495e-05
aa(lp540
F0.16953700815505254
aF0.04622776400319779
aF0.17313619735105204
aF-1.2876803987738195
aF0.03457335586535467
aF0.487142006942686
aF5.7875473791302785e-05
aa(lp541
F0.16915654483053774
aF0.04628032138111997
aF0.172774662192688
aF-1.2844507825179743
aF0.03454350651108592
aF0.48599798978847303
aF5.8082740408174506e-05
aa(lp542
F0.16875956131235786
aF0.046333387870260694
aF0.17239740392884056
aF-1.2812279517960192
aF0.03451183577786153
aF0.48485601202250356
aF5.8290240585871306e-05
aa(lp543
F0.16834606042102526
aF0.04638695532787806
aF0.17200443258961864
aF-1.278012196104453
aF0.03447834892565748
aF0.48371618049841003
aF5.849794952659066e-05
aa(lp544
F0.16791604561833454
aF0.04644101541418059
aF0.1715957588586596
aF-1.2748038051112431
aF0.03444305123763679
aF0.4825786022213742
aF5.870584236251855e-05
aa(lp545
F0.16746952102798904
aF0.0464955595923668
aF0.17117139409086363
aF-1.2716030686561066
aF0.03440594802169471
aF0.4814433843456012
aF5.8913894160711405e-05
aa(lp546
F0.16700649145700489
aF0.046550579128687625
aF0.17073135033079276
aF-1.268410276750283
aF0.03436704461208341
aF0.4803106341715928
aF5.9122079927973996e-05
aa(lp547
F0.16652696241788845
aF0.04660606509253403
aF0.17027564033172832
aF-1.2652257195757743
aF0.03432634637111487
aF0.47918045914321367
aF5.9330374615734554e-05
aa(lp548
F0.1660309401515825
aF0.04666200835655238
aF0.16980427757538077
aF-1.262049687484032
aF0.03428385869094064
aF0.47805296684454196
aF5.953875312491196e-05
aa(lp549
F0.16551843165117577
aF0.04671839959678972
aF0.16931727629224516
aF-1.2588824709940662
aF0.03423958699540733
aF0.476928264996499
aF5.974719031077342e-05
aa(lp550
F0.1649894446863698
aF0.04677522929287171
aF0.168814651482595
aF-1.255724360789958
aF0.03419353674198633
aF0.4758064614532498
aF5.9955660987781664e-05
aa(lp551
F0.16444398782869724
aF0.04683248772821544
aF0.16829641893810668
aF-1.2525756477177472
aF0.03414571342377653
aF0.4746876641983685
aF6.0164139934428596e-05
aa(lp552
F0.16388207047748377
aF0.04689016499028026
aF0.1677625952641065
aF-1.24943662278168
aF0.03409612257157861
aF0.47357198134076084
aF6.037260189805361e-05
aa(lp553
F0.1633037028865469
aF0.04694825097085891
aF0.16721319790243142
aF-1.2463075771397867
aF0.03404476975603952
aF0.47245952111033723
aF6.058102159964315e-05
aa(lp554
F0.16270889619162254
aF0.047006735366412006
aF0.16664824515489404
aF-1.243188802098773
aF0.03399166058986565
aF0.47135039185343003
aF6.078937373861299e-05
aa(lp555
F0.16209766243851104
aF0.04706560767844862
aF0.16606775620734227
aF-1.2400805891081994
aF0.03393680073010334
aF0.4702447020279471
aF6.099763299756709e-05
aa(lp556
F0.16147001461193242
aF0.04712485721395597
aF0.1654717511543029
aF-1.2369832297539272
aF0.033880195880485096
aF0.4691425601982561
aF6.120577404703267e-05
aa(lp557
F0.16082596666508095
aF0.04718447308588125
aF0.16486025102419835
aF-1.2338970157508082
aF0.03382185179384003
aF0.46804407502979206
aF6.14137715501708e-05
aa(lp558
F0.16016553354986757
aF0.047244444213668385
aF0.16423327780512434
aF-1.230822238934598
aF0.03376177427456696
aF0.46694935528338183
aF6.162160016745794e-05
aa(lp559
F0.15948873124783822
aF0.04730475932385334
aF0.16359085447117674
aF-1.2277591912530679
aF0.03369996918116849
aF0.46585850980927884
aF6.182923456133866e-05
aa(lp560
F0.15879557680175563
aF0.04736540695072072
aF0.1629330050093141
aF-1.2247081647562963
aF0.033636442428844476
aF0.4647716475409019
aF6.203664940084556e-05
aa(lp561
F0.15808608834783044
aF0.04742637543702499
aF0.16225975444674218
aF-1.221669451586116
aF0.033571199992143044
aF0.4636888774882713
aF6.224381936618705e-05
aa(lp562
F0.15736028514858788
aF0.04748765293477992
aF0.1615711288788063
aF-1.2186433439646964
aF0.033504247907667574
aF0.46261030873113623
aF6.245071915329823e-05
aa(lp563
F0.1566181876263539
aF0.047549227406119096
aF0.16086715549737618
aF-1.2156301341822404
aF0.03343559227683768
aF0.461536050411787
aF6.265732347835438e-05
aa(lp564
F0.15585981739734522
aF0.04761108662423129
aF0.16014786261970695
aF-1.2126301145837717
aF0.03336523926870238
aF0.4604662117275468
aF6.286360708224646e-05
aa(lp565
F0.15508519730634537
aF0.047673218174373914
aF0.15941327971776045
aF-1.2096435775549963
aF0.0332931951228036
aF0.45940090192293564
aF6.306954473501423e-05
aa(lp566
F0.15429435146194911
aF0.047735609454968166
aF0.15866343744796862
aF-1.2066708155072128
aF0.03321946615208794
aF0.4583402302815021
aF6.327511124023597e-05
aa(lp567
F0.15348730527235574
aF0.047798247678779056
aF0.1578983676814209
aF-1.2037121208612547
aF0.03314405874586474
aF0.4572843061173167
aF6.348028143937514e-05
aa(lp568
F0.1526640854816909
aF0.04786111987418427
aF0.15711810353445665
aF-1.2007677860304433
aF0.033066979372808315
aF0.45623323876612065
aF6.368503021607977e-05
aa(lp569
F0.1518247202068361
aF0.047924212886535165
aF0.15632267939964253
aF-1.1978381034025314
aF0.032988234584002255
aF0.455187137576126
aF6.388933250043319e-05
aa(lp570
F0.1509692389747431
aF0.04798751337961344
aF0.15551213097711386
aF-1.1949233653206193
aF0.03290783101602354
aF0.4541461118984609
aF6.409316327315622e-05
aa(lp571
F0.15009767276020988
aF0.04805100783718712
aF0.1546864953062586
aF-1.1920238640630234
aF0.03282577539406419
aF0.45311027107725527
aF6.429649756975673e-05
aa(lp572
F0.1492100540240938
aF0.04811468256466964
aF0.15384581079772106
aF-1.189139891822081
aF0.03274207453508813
aF0.45207972443936256
aF6.449931048462752e-05
aa(lp573
F0.14830641675193582
aF0.04817852369088519
aF0.15299011726570197
aF-1.1862717406818706
aF0.03265673535102081
aF0.4510545812837123
aF6.470157717508907e-05
aa(lp574
F0.14738679649296926
aF0.04824251716994435
aF0.15211945596053061
aF-1.1834197025948325
aF0.03256976485196915
aF0.4500349508702892
aF6.490327286537694e-05
aa(lp575
F0.14645123039948488
aF0.04830664878323328
aF0.15123386960148347
aF-1.1805840693572736
aF0.0324811701494692
aF0.4490209424087355
aF6.510437285057117e-05
aa(lp576
F0.14549975726652284
aF0.048370904141520246
aF0.1503334024098233
aF-1.1777651325837377
aF0.03239095845975893
aF0.44801266504657117
aF6.530485250046783e-05
aa(lp577
F0.14453241757186142
aF0.04843526868718288
aF0.14941810014203144
aF-1.1749631836802281
aF0.03229913710707341
aF0.4470102278570296
aF6.550468726339001e-05
aa(lp578
F0.14354925351627035
aF0.04849972769655968
aF0.14848801012320503
aF-1.1721785138162668
aF0.03220571352695962
aF0.44601373982650494
aF6.570385266993904e-05
aa(lp579
F0.14255030906399613
aF0.048564266282429366
aF0.1475431812805902
aF-1.1694114138957767
aF0.03211069526960802
aF0.4450233098416078
aF6.590232433668097e-05
aa(lp580
F0.14153562998344482
aF0.04862886939662136
aF0.1465836641772211
aF-1.1666621745267733
aF0.03201409000319796
aF0.4440390466758266
aF6.610007796977183e-05
aa(lp581
F0.14050526388802703
aF0.04869352183276074
aF0.14560951104563363
aF-1.1639310859898535
aF0.031915905517253935
aF0.4430610589757923
aF6.629708936851745e-05
aa(lp582
F0.13945926027712824
aF0.04875820822915124
aF0.14462077582162208
aF-1.1612184382054693
aF0.03181614972600956
aF0.4420894552471439
aF6.64933344288675e-05
aa(lp583
F0.13839767057716634
aF0.048822913071799055
aF0.14361751417800553
aF-1.1585245206999784
aF0.0317148306717761
aF0.44112434383999344
aF6.66887891468439e-05
aa(lp584
F0.1373205481826974
aF0.04888762069758114
aF0.14259978355837014
aF-1.155849622570457
aF0.03161195652831235
aF0.44016583293398837
aF6.688342962190088e-05
aa(lp585
F0.13622794849752853
aF0.04895231529756065
aF0.14156764321075255
aF-1.1531940324482723
aF0.031507535604192526
aF0.43921403052297037
aF6.707723206021731e-05
aa(lp586
F0.13511992897579658
aF0.04901698092045279
aF0.14052115422122843
aF-1.1505580384614016
aF0.031401576346168726
aF0.43826904439923003
aF6.727017277792105e-05
aa(lp587
F0.1339965491629691
aF0.049081601476243596
aF0.1394603795473695
aF-1.1479419281954941
aF0.031294087342524535
aF0.43733098213735677
aF6.746222820424234e-05
aa(lp588
F0.13285787073672356
aF0.049146160739964806
aF0.1383853840515314
aF-1.1453459886536712
aF0.031185077326416184
aF0.43639995107768403
aF6.76533748845978e-05
aa(lp589
F0.1317039575476588
aF0.04921064235562712
aF0.13729623453393366
aF-1.1427705062150573
aF0.031074555179197653
aF0.4354760583093301
aF6.784358948360422e-05
aa(lp590
F0.13053487565979233
aF0.04927502984031434
aF0.13619299976549262
aF-1.1402157665920414
aF0.03096252993372601
aF0.4345594106528358
aF6.803284878802001e-05
aa(lp591
F0.12935069339079527
aF0.04933930658844106
aF0.13507575052036655
aF-1.137682054786267
aF0.030849010777643168
aF0.4336501146423995
aF6.822112970961761e-05
aa(lp592
F0.12815148135191556
aF0.04940345587617554
aF0.13394455960817217
aF-1.1351696550433485
aF0.030734007056630284
aF0.43274827650771197
aF6.840840928798103e-05
aa(lp593
F0.12693731248753942
aF0.049467460866030225
aF0.13279950190583042
aF-1.132678850806318
aF0.03061752827763081
aF0.43185400215539327
aF6.859466469323441e-05
aa(lp594
F0.12570826211433936
aF0.04953130461162162
aF0.13164065438899886
aF-1.1302099246678008
aF0.030499584112038243
aF0.43096739715003324
aF6.877987322869637e-05
aa(lp595
F0.12446440795995628
aF0.04959497006260094
aF0.13046809616304672
aF-1.1277631583209284
aF0.03038018439884453
aF0.4300885666948403
aF6.896401233346465e-05
aa(lp596
F0.1232058302011622
aF0.04965844006975736
aF0.12928190849352916
aF-1.1253388325089906
aF0.030259339147745
aF0.42921761561190097
aF6.914705958492622e-05
aa(lp597
F0.12193261150144884
aF0.04972169739029463
aF0.12808217483611503
aF-1.122937226973835
aF0.030137058542195644
aF0.428354648322055
aF6.932899270119726e-05
aa(lp598
F0.12064483704798667
aF0.04978472469328254
aF0.1268689808659232
aF-1.1205586204030233
aF0.030013352942418556
aF0.42749976882439045
aF6.950978954349134e-05
aa(lp599
F0.11934259458789807
aF0.049847504565283675
aF0.12564241450622085
aF-1.1182032903757537
aF0.029888232888351223
aF0.42665308067536384
aF6.96894281184156e-05
aa(lp600
F0.11802597446378721
aF0.0499100195161561
aF0.12440256595643764
aF-1.1158715133075616
aF0.029761709102535363
aF0.4258146869675516
aF6.986788658019602e-05
aa(lp601
F0.11669506964846882
aF0.04997225198503237
aF0.12314952771944784
aF-1.1135635643938127
aF0.029633792492940927
aF0.4249846903080386
aF7.004514323283304e-05
aa(lp602
F0.11534997577883702
aF0.05003418434647458
aF0.12188339462807361
aF-1.111279717552003
aF0.029504494155720894
aF0.4241631927964509
aF7.02211765321867e-05
aa(lp603
F0.11399079118881492
aF0.05009579891680558
aF0.12060426387076106
aF-1.1090202453628855
aF0.029373825377892394
aF0.4233502960026402
aF7.039596508799206e-05
aa(lp604
F0.1126176169413251
aF0.050157077960615616
aF0.1193122350163809
aF-1.1067854190104383
aF0.02924179763993973
aF0.42254610094402734
aF7.05694876658063e-05
aa(lp605
F0.11123055685922058
aF0.050218003697443406
aF0.11800741003810533
aF-1.104575508220701
aF0.02910842261833478
aF0.4217507080626149
aF7.07417231888892e-05
aa(lp606
F0.1098297175551155
aF0.05027855830863106
aF0.11668989333631238
aF-1.1023907811994966
aF0.028973712187970332
aF0.42096421720167626
aF7.091265074001491e-05
aa(lp607
F0.10841520846005455
aF0.05033872394435069
aF0.11535979176046905
aF-1.100231504569068
aF0.02883767842450178
aF0.4201867275821321
aF7.108224956321896e-05
aa(lp608
F0.10698714185095974
aF0.050398482730801594
aF0.11401721462994444
aF-1.0980979433036537
aF0.028700333606592764
aF0.4194183377786245
aF7.125049906547992e-05
aa(lp609
F0.10554563287679329
aF0.05045781677757543
aF0.11266227375370412
aF-1.0959903606640329
aF0.028561690218060164
aF0.41865914569529894
aF7.1417378818338e-05
aa(lp610
F0.10409079958337514
aF0.05051670818518744
aF0.11129508344883737
aF-1.0939090181310698
aF0.028421760949914034
aF0.41790924854130684
aF7.158286855945103e-05
aa(lp611
F0.10262276293679393
aF0.050575139052770446
aF0.10991576055786872
aF-1.0918541753382909
aF0.02828055870228794
aF0.41716874280603977
aF7.174694819408823e-05
aa(lp612
F0.10114164684535036
aF0.050633091485929003
aF0.10852442446480592
aF-1.0898260900035297
aF0.028138096586255337
aF0.41643772423410846
aF7.190959779656605e-05
aa(lp613
F0.09964757817997219
aF0.05069054760474985
aF0.1071211971098767
aF-1.0878250178596758
aF0.027994387925527518
aF0.4157162878000803
aF7.207079761162384e-05
aa(lp614
F0.09814068679304065
aF0.050747489551965175
aF0.1057062030029073
aF-1.0858512125845676
aF0.027849446258028817
aF0.4150045276829888
aF7.22305280557445e-05
aa(lp615
F0.0966211055355686
aF0.050803899501264224
aF0.10427956923529605
aF-1.08390492573007
aF0.02770328533734474
aF0.4143025372406295
aF7.238876971841914e-05
aa(lp616
F0.09508897027267146
aF0.05085975966574883
aF0.10284142549053651
aF-1.0819864066503793
aF0.0275559191340388
aF0.4136104089836581
aF7.254550336335773e-05
aa(lp617
F0.09354441989727273
aF0.05091505230652806
aF0.10139190405324487
aF-1.0800959024296024
aF0.027407361836833878
aF0.4129282345495055
aF7.270070992964909e-05
aa(lp618
F0.09198759634198697
aF0.05096975974144649
aF0.09993113981664772
aF-1.0782336578086544
aF0.027257627853654022
aF0.4122561046761273
aF7.285437053287124e-05
aa(lp619
F0.09041864458912416
aF0.05102386435394039
aF0.09845927028848696
aF-1.076399915111527
aF0.027106731812522693
aF0.41159410917560313
aF7.300646646615258e-05
aa(lp620
F0.0888377126787606
aF0.051077348602016216
aF0.09697643559529992
aF-1.0745949141709772
aF0.026954688562313547
aF0.4109423369076046
aF7.315697920118859e-05
aa(lp621
F0.08724495171482292
aF0.05113019502734439
aF0.09548277848503398
aF-1.072818892253689
aF0.026801513173349986
aF0.4103008757527489
aF7.330589038921336e-05
aa(lp622
F0.0856405158691332
aF0.05118238626446202
aF0.09397844432795605
aF-1.0710720839849655
aF0.026647220937849794
aF0.4096698125858565
aF7.345318186193022e-05
aa(lp623
F0.08402456238336503
aF0.051233905050077286
aF0.09246358111581912
aF-1.069354721273006
aF0.026491827370211333
aF0.40904923324913306
aF7.359883563240248e-05
aa(lp624
F0.08239725156886205
aF0.05128473423246793
aF0.09093833945924927
aF-1.067667033232827
aF0.02633534820713791
aF0.40843922252529336
aF7.374283389590637e-05
aa(lp625
F0.0807587468042723
aF0.05133485678096584
aF0.08940287258331837
aF-1.066009246109891
aF0.026177799407597027
aF0.40783986411064843
aF7.388515903074971e-05
aa(lp626
F0.07910921453095424
aF0.051384255795519945
aF0.08785733632126941
aF-1.0643815832034995
aF0.0260191971526115
aF0.40725124058817597
aF7.402579359905649e-05
aa(lp627
F0.07744882424611199
aF0.05143291451632824
aF0.08630188910636313
aF-1.0627842647900219
aF0.02585955784487946
aF0.40667343340059464
aF7.41647203475223e-05
aa(lp628
F0.07577774849362022
aF0.05148081633353049
aF0.08473669196181698
aF-1.0612175080460176
aF0.02569889810822053
aF0.40610652282346416
aF7.430192220814066e-05
aa(lp629
F0.07409616285250124
aF0.05152794479695209
aF0.08316190848880894
aF-1.0596815269713264
aF0.025537234786845667
aF0.40555058793833204
aF7.443738229890386e-05
aa(lp630
F0.0724042459230198
aF0.051574283625889665
aF0.08157770485252155
aF-1.05817653231219
aF0.02537458494444824
aF0.40500570660594987
aF7.457108392448124e-05
aa(lp631
F0.07070217893598311
aF0.0516198157933896
aF0.07998440220709976
aF-1.0567027318123325
aF0.025210965863114297
aF0.40447195482821985
aF7.471869669478313e-05
aa(lp632
F0.0689901468532476
aF0.051664525707395645
aF0.07838202740828015
aF-1.055260329662703
aF0.025046395043026467
aF0.40394940878909197
aF7.486537484740097e-05
aa(lp633
F0.06726833568245695
aF0.05170839771404549
aF0.07677074323271924
aF-1.0538495263857253
aF0.024880890044814145
aF0.40343814258005206
aF7.501012334305195e-05
aa(lp634
F0.06553693583904564
aF0.05175141633857944
aF0.07515072499102102
aF-1.052470518924725
aF0.02471446878916853
aF0.40293822890605774
aF7.515283700779315e-05
aa(lp635
F0.06379614078223918
aF0.05179356632185488
aF0.07352215134630696
aF-1.051123500586655
aF0.024547149421778318
aF0.4024497391140834
aF7.529348977959024e-05
aa(lp636
F0.062046146867881784
aF0.051834832632525196
aF0.07188520347731073
aF-1.049808660968582
aF0.02437895029952733
aF0.4019727431720716
aF7.543206278913865e-05
aa(lp637
F0.06028715330667377
aF0.05187520047703245
aF0.07024006497860733
aF-1.0485261858832187
aF0.02420988998724788
aF0.40150730964370496
aF7.556853799933272e-05
aa(lp638
F0.05851936174052737
aF0.05191465433859622
aF0.06858707635656949
aF-1.0472762576230072
aF0.024039987255235512
aF0.401053505033519
aF7.571899071570077e-05
aa(lp639
F0.05674297736341147
aF0.05195318026124548
aF0.06692628026093556
aF-1.0460590544076547
aF0.023869261077310754
aF0.40061139589279965
aF7.586825707924938e-05
aa(lp640
F0.054958206167572514
aF0.0519907642885018
aF0.06525785529364933
aF-1.0448747502529268
aF0.023697730471094754
aF0.40018104647872066
aF7.601522151382142e-05
aa(lp641
F0.053165258325522345
aF0.052027392708838875
aF0.0635819932602293
aF-1.0437235150757802
aF0.023525414797981762
aF0.39976251947927594
aF7.615975957841292e-05
aa(lp642
F0.051364346808485555
aF0.05206305209301022
aF0.06189888924299965
aF-1.042605514644977
aF0.023352333627190823
aF0.3993558760483227
aF7.630184159247991e-05
aa.